   1              		.syntax unified
   2              		.cpu cortex-m4
   3              		.eabi_attribute 27, 3
   4              		.fpu fpv4-sp-d16
   5              		.eabi_attribute 20, 1
   6              		.eabi_attribute 21, 1
   7              		.eabi_attribute 23, 3
   8              		.eabi_attribute 24, 1
   9              		.eabi_attribute 25, 1
  10              		.eabi_attribute 26, 1
  11              		.eabi_attribute 30, 4
  12              		.eabi_attribute 34, 1
  13              		.eabi_attribute 18, 4
  14              		.thumb
  15              		.file	"AeroQuadMain.cpp"
  16              		.text
  17              	.Ltext0:
  18              		.cfi_sections	.debug_frame
  19              		.section	.text._ZL6microsv,"ax",%progbits
  20              		.align	1
  21              		.thumb
  22              		.thumb_func
  24              	_ZL6microsv:
  25              	.LFB56:
  26              		.file 1 "../Libmaple/libmaple/wirish/wirish_time.h"
   1:../Libmaple/libmaple/wirish/wirish_time.h **** /******************************************************************************
   2:../Libmaple/libmaple/wirish/wirish_time.h ****  * The MIT License
   3:../Libmaple/libmaple/wirish/wirish_time.h ****  *
   4:../Libmaple/libmaple/wirish/wirish_time.h ****  * Copyright (c) 2010 Perry Hung.
   5:../Libmaple/libmaple/wirish/wirish_time.h ****  *
   6:../Libmaple/libmaple/wirish/wirish_time.h ****  * Permission is hereby granted, free of charge, to any person
   7:../Libmaple/libmaple/wirish/wirish_time.h ****  * obtaining a copy of this software and associated documentation
   8:../Libmaple/libmaple/wirish/wirish_time.h ****  * files (the "Software"), to deal in the Software without
   9:../Libmaple/libmaple/wirish/wirish_time.h ****  * restriction, including without limitation the rights to use, copy,
  10:../Libmaple/libmaple/wirish/wirish_time.h ****  * modify, merge, publish, distribute, sublicense, and/or sell copies
  11:../Libmaple/libmaple/wirish/wirish_time.h ****  * of the Software, and to permit persons to whom the Software is
  12:../Libmaple/libmaple/wirish/wirish_time.h ****  * furnished to do so, subject to the following conditions:
  13:../Libmaple/libmaple/wirish/wirish_time.h ****  *
  14:../Libmaple/libmaple/wirish/wirish_time.h ****  * The above copyright notice and this permission notice shall be
  15:../Libmaple/libmaple/wirish/wirish_time.h ****  * included in all copies or substantial portions of the Software.
  16:../Libmaple/libmaple/wirish/wirish_time.h ****  *
  17:../Libmaple/libmaple/wirish/wirish_time.h ****  * THE SOFTWARE IS PROVIDED "AS IS", WITHOUT WARRANTY OF ANY KIND,
  18:../Libmaple/libmaple/wirish/wirish_time.h ****  * EXPRESS OR IMPLIED, INCLUDING BUT NOT LIMITED TO THE WARRANTIES OF
  19:../Libmaple/libmaple/wirish/wirish_time.h ****  * MERCHANTABILITY, FITNESS FOR A PARTICULAR PURPOSE AND
  20:../Libmaple/libmaple/wirish/wirish_time.h ****  * NONINFRINGEMENT. IN NO EVENT SHALL THE AUTHORS OR COPYRIGHT HOLDERS
  21:../Libmaple/libmaple/wirish/wirish_time.h ****  * BE LIABLE FOR ANY CLAIM, DAMAGES OR OTHER LIABILITY, WHETHER IN AN
  22:../Libmaple/libmaple/wirish/wirish_time.h ****  * ACTION OF CONTRACT, TORT OR OTHERWISE, ARISING FROM, OUT OF OR IN
  23:../Libmaple/libmaple/wirish/wirish_time.h ****  * CONNECTION WITH THE SOFTWARE OR THE USE OR OTHER DEALINGS IN THE
  24:../Libmaple/libmaple/wirish/wirish_time.h ****  * SOFTWARE.
  25:../Libmaple/libmaple/wirish/wirish_time.h ****  *****************************************************************************/
  26:../Libmaple/libmaple/wirish/wirish_time.h **** 
  27:../Libmaple/libmaple/wirish/wirish_time.h **** /**
  28:../Libmaple/libmaple/wirish/wirish_time.h ****  * @file wirish_time.h
  29:../Libmaple/libmaple/wirish/wirish_time.h ****  * @brief Timing and delay functions.
  30:../Libmaple/libmaple/wirish/wirish_time.h ****  */
  31:../Libmaple/libmaple/wirish/wirish_time.h **** 
  32:../Libmaple/libmaple/wirish/wirish_time.h **** #ifndef __WIRISH_TIME_H_
  33:../Libmaple/libmaple/wirish/wirish_time.h **** #define __WIRISH_TIME_H_
  34:../Libmaple/libmaple/wirish/wirish_time.h **** 
  35:../Libmaple/libmaple/wirish/wirish_time.h **** #include "libmaple.h"
  36:../Libmaple/libmaple/wirish/wirish_time.h **** #include "nvic.h"
  37:../Libmaple/libmaple/wirish/wirish_time.h **** #include "systick.h"
  38:../Libmaple/libmaple/wirish/wirish_time.h **** #include "boards.h"
  39:../Libmaple/libmaple/wirish/wirish_time.h **** 
  40:../Libmaple/libmaple/wirish/wirish_time.h **** #define US_PER_MS               1000
  41:../Libmaple/libmaple/wirish/wirish_time.h **** 
  42:../Libmaple/libmaple/wirish/wirish_time.h **** /**
  43:../Libmaple/libmaple/wirish/wirish_time.h ****  * Returns time (in milliseconds) since the beginning of program
  44:../Libmaple/libmaple/wirish/wirish_time.h ****  * execution. On overflow, restarts at 0.
  45:../Libmaple/libmaple/wirish/wirish_time.h ****  * @see micros()
  46:../Libmaple/libmaple/wirish/wirish_time.h ****  */
  47:../Libmaple/libmaple/wirish/wirish_time.h **** static inline uint32 millis(void) {
  48:../Libmaple/libmaple/wirish/wirish_time.h ****     return systick_uptime();
  49:../Libmaple/libmaple/wirish/wirish_time.h **** }
  50:../Libmaple/libmaple/wirish/wirish_time.h **** 
  51:../Libmaple/libmaple/wirish/wirish_time.h **** /**
  52:../Libmaple/libmaple/wirish/wirish_time.h ****  * Returns time (in microseconds) since the beginning of program
  53:../Libmaple/libmaple/wirish/wirish_time.h ****  * execution.  On overflow, restarts at 0.
  54:../Libmaple/libmaple/wirish/wirish_time.h ****  * @see millis()
  55:../Libmaple/libmaple/wirish/wirish_time.h ****  */
  56:../Libmaple/libmaple/wirish/wirish_time.h **** static inline uint32 micros(void) {
  27              		.loc 1 56 0
  28              		.cfi_startproc
  29              		@ args = 0, pretend = 0, frame = 0
  30              		@ frame_needed = 0, uses_anonymous_args = 0
  31              		@ link register save eliminated.
  32              	.L2:
  33              	.LBB78:
  34              	.LBB79:
  35              	.LBB80:
  36              	.LBB81:
  37              		.file 2 "../Libmaple/libmaple/libmaple/systick.h"
   1:../Libmaple/libmaple/libmaple/systick.h **** /******************************************************************************
   2:../Libmaple/libmaple/libmaple/systick.h ****  * The MIT License
   3:../Libmaple/libmaple/libmaple/systick.h ****  *
   4:../Libmaple/libmaple/libmaple/systick.h ****  * Copyright (c) 2010 Perry Hung.
   5:../Libmaple/libmaple/libmaple/systick.h ****  *
   6:../Libmaple/libmaple/libmaple/systick.h ****  * Permission is hereby granted, free of charge, to any person
   7:../Libmaple/libmaple/libmaple/systick.h ****  * obtaining a copy of this software and associated documentation
   8:../Libmaple/libmaple/libmaple/systick.h ****  * files (the "Software"), to deal in the Software without
   9:../Libmaple/libmaple/libmaple/systick.h ****  * restriction, including without limitation the rights to use, copy,
  10:../Libmaple/libmaple/libmaple/systick.h ****  * modify, merge, publish, distribute, sublicense, and/or sell copies
  11:../Libmaple/libmaple/libmaple/systick.h ****  * of the Software, and to permit persons to whom the Software is
  12:../Libmaple/libmaple/libmaple/systick.h ****  * furnished to do so, subject to the following conditions:
  13:../Libmaple/libmaple/libmaple/systick.h ****  *
  14:../Libmaple/libmaple/libmaple/systick.h ****  * The above copyright notice and this permission notice shall be
  15:../Libmaple/libmaple/libmaple/systick.h ****  * included in all copies or substantial portions of the Software.
  16:../Libmaple/libmaple/libmaple/systick.h ****  *
  17:../Libmaple/libmaple/libmaple/systick.h ****  * THE SOFTWARE IS PROVIDED "AS IS", WITHOUT WARRANTY OF ANY KIND,
  18:../Libmaple/libmaple/libmaple/systick.h ****  * EXPRESS OR IMPLIED, INCLUDING BUT NOT LIMITED TO THE WARRANTIES OF
  19:../Libmaple/libmaple/libmaple/systick.h ****  * MERCHANTABILITY, FITNESS FOR A PARTICULAR PURPOSE AND
  20:../Libmaple/libmaple/libmaple/systick.h ****  * NONINFRINGEMENT. IN NO EVENT SHALL THE AUTHORS OR COPYRIGHT HOLDERS
  21:../Libmaple/libmaple/libmaple/systick.h ****  * BE LIABLE FOR ANY CLAIM, DAMAGES OR OTHER LIABILITY, WHETHER IN AN
  22:../Libmaple/libmaple/libmaple/systick.h ****  * ACTION OF CONTRACT, TORT OR OTHERWISE, ARISING FROM, OUT OF OR IN
  23:../Libmaple/libmaple/libmaple/systick.h ****  * CONNECTION WITH THE SOFTWARE OR THE USE OR OTHER DEALINGS IN THE
  24:../Libmaple/libmaple/libmaple/systick.h ****  * SOFTWARE.
  25:../Libmaple/libmaple/libmaple/systick.h ****  *****************************************************************************/
  26:../Libmaple/libmaple/libmaple/systick.h **** 
  27:../Libmaple/libmaple/libmaple/systick.h **** /**
  28:../Libmaple/libmaple/libmaple/systick.h ****  * @file systick.h
  29:../Libmaple/libmaple/libmaple/systick.h ****  *
  30:../Libmaple/libmaple/libmaple/systick.h ****  * @brief Various system timer definitions
  31:../Libmaple/libmaple/libmaple/systick.h ****  */
  32:../Libmaple/libmaple/libmaple/systick.h **** 
  33:../Libmaple/libmaple/libmaple/systick.h **** #ifndef _SYSTICK_H_
  34:../Libmaple/libmaple/libmaple/systick.h **** #define _SYSTICK_H_
  35:../Libmaple/libmaple/libmaple/systick.h **** 
  36:../Libmaple/libmaple/libmaple/systick.h **** #include "libmaple_types.h"
  37:../Libmaple/libmaple/libmaple/systick.h **** #include "util.h"
  38:../Libmaple/libmaple/libmaple/systick.h **** 
  39:../Libmaple/libmaple/libmaple/systick.h **** #ifdef __cplusplus
  40:../Libmaple/libmaple/libmaple/systick.h **** extern "C"{
  41:../Libmaple/libmaple/libmaple/systick.h **** #endif
  42:../Libmaple/libmaple/libmaple/systick.h **** 
  43:../Libmaple/libmaple/libmaple/systick.h **** /** SysTick register map type */
  44:../Libmaple/libmaple/libmaple/systick.h **** typedef struct systick_reg_map {
  45:../Libmaple/libmaple/libmaple/systick.h ****     __io uint32 CSR;            /**< Control and status register */
  46:../Libmaple/libmaple/libmaple/systick.h ****     __io uint32 RVR;            /**< Reload value register */
  47:../Libmaple/libmaple/libmaple/systick.h ****     __io uint32 CNT;            /**< Current value register ("count") */
  48:../Libmaple/libmaple/libmaple/systick.h ****     __io uint32 CVR;            /**< Calibration value register */
  49:../Libmaple/libmaple/libmaple/systick.h **** } systick_reg_map;
  50:../Libmaple/libmaple/libmaple/systick.h **** 
  51:../Libmaple/libmaple/libmaple/systick.h **** /** SysTick register map base pointer */
  52:../Libmaple/libmaple/libmaple/systick.h **** #define SYSTICK_BASE                    ((struct systick_reg_map*)0xE000E010)
  53:../Libmaple/libmaple/libmaple/systick.h **** 
  54:../Libmaple/libmaple/libmaple/systick.h **** /*
  55:../Libmaple/libmaple/libmaple/systick.h ****  * Register bit definitions.
  56:../Libmaple/libmaple/libmaple/systick.h ****  */
  57:../Libmaple/libmaple/libmaple/systick.h **** 
  58:../Libmaple/libmaple/libmaple/systick.h **** /* Control and status register */
  59:../Libmaple/libmaple/libmaple/systick.h **** 
  60:../Libmaple/libmaple/libmaple/systick.h **** #define SYSTICK_CSR_COUNTFLAG           BIT(16)
  61:../Libmaple/libmaple/libmaple/systick.h **** #define SYSTICK_CSR_CLKSOURCE           BIT(2)
  62:../Libmaple/libmaple/libmaple/systick.h **** #define SYSTICK_CSR_CLKSOURCE_EXTERNAL  0
  63:../Libmaple/libmaple/libmaple/systick.h **** #define SYSTICK_CSR_CLKSOURCE_CORE      BIT(2)
  64:../Libmaple/libmaple/libmaple/systick.h **** #define SYSTICK_CSR_TICKINT             BIT(1)
  65:../Libmaple/libmaple/libmaple/systick.h **** #define SYSTICK_CSR_TICKINT_PEND        BIT(1)
  66:../Libmaple/libmaple/libmaple/systick.h **** #define SYSTICK_CSR_TICKINT_NO_PEND     0
  67:../Libmaple/libmaple/libmaple/systick.h **** #define SYSTICK_CSR_ENABLE              BIT(0)
  68:../Libmaple/libmaple/libmaple/systick.h **** #define SYSTICK_CSR_ENABLE_MULTISHOT    BIT(0)
  69:../Libmaple/libmaple/libmaple/systick.h **** #define SYSTICK_CSR_ENABLE_DISABLED     0
  70:../Libmaple/libmaple/libmaple/systick.h **** 
  71:../Libmaple/libmaple/libmaple/systick.h **** /* Calibration value register */
  72:../Libmaple/libmaple/libmaple/systick.h **** 
  73:../Libmaple/libmaple/libmaple/systick.h **** #define SYSTICK_CVR_NOREF               BIT(31)
  74:../Libmaple/libmaple/libmaple/systick.h **** #define SYSTICK_CVR_SKEW                BIT(30)
  75:../Libmaple/libmaple/libmaple/systick.h **** #define SYSTICK_CVR_TENMS               0xFFFFFF
  76:../Libmaple/libmaple/libmaple/systick.h **** 
  77:../Libmaple/libmaple/libmaple/systick.h **** /** System elapsed time, in milliseconds */
  78:../Libmaple/libmaple/libmaple/systick.h **** extern volatile uint32 systick_uptime_millis;
  79:../Libmaple/libmaple/libmaple/systick.h **** 
  80:../Libmaple/libmaple/libmaple/systick.h **** /**
  81:../Libmaple/libmaple/libmaple/systick.h ****  * @brief Returns the system uptime, in milliseconds.
  82:../Libmaple/libmaple/libmaple/systick.h ****  */
  83:../Libmaple/libmaple/libmaple/systick.h **** static inline uint32 systick_uptime(void) {
  84:../Libmaple/libmaple/libmaple/systick.h ****     return systick_uptime_millis;
  38              		.loc 2 84 0 discriminator 1
  39 0000 0B48     		ldr	r0, .L9
  40              	.LBE81:
  41              	.LBE80:
  42              	.LBE79:
  43              	.LBB84:
  44              	.LBB85:
  85:../Libmaple/libmaple/libmaple/systick.h **** }
  86:../Libmaple/libmaple/libmaple/systick.h **** 
  87:../Libmaple/libmaple/libmaple/systick.h **** 
  88:../Libmaple/libmaple/libmaple/systick.h **** void systick_init(uint32 reload_val);
  89:../Libmaple/libmaple/libmaple/systick.h **** void systick_disable();
  90:../Libmaple/libmaple/libmaple/systick.h **** void systick_enable();
  91:../Libmaple/libmaple/libmaple/systick.h **** 
  92:../Libmaple/libmaple/libmaple/systick.h **** /**
  93:../Libmaple/libmaple/libmaple/systick.h ****  * @brief Returns the current value of the SysTick counter.
  94:../Libmaple/libmaple/libmaple/systick.h ****  */
  95:../Libmaple/libmaple/libmaple/systick.h **** static inline uint32 systick_get_count(void) {
  96:../Libmaple/libmaple/libmaple/systick.h ****     return SYSTICK_BASE->CNT;
  45              		.loc 2 96 0 discriminator 1
  46 0002 0C4A     		ldr	r2, .L9+4
  47              	.LBE85:
  48              	.LBE84:
  49              	.LBB87:
  50              	.LBB83:
  51              	.LBB82:
  84:../Libmaple/libmaple/libmaple/systick.h ****     return systick_uptime_millis;
  52              		.loc 2 84 0 discriminator 1
  53 0004 0368     		ldr	r3, [r0, #0]
  54              	.LBE82:
  55              	.LBE83:
  56              	.LBE87:
  57              	.LBB88:
  58              	.LBB86:
  59              		.loc 2 96 0 discriminator 1
  60 0006 9168     		ldr	r1, [r2, #8]
  61              	.LBE86:
  62              	.LBE88:
  63              	.LBB89:
  64              	.LBB90:
  65              	.LBB91:
  84:../Libmaple/libmaple/libmaple/systick.h ****     return systick_uptime_millis;
  66              		.loc 2 84 0 discriminator 1
  67 0008 0068     		ldr	r0, [r0, #0]
  68              	.LBE91:
  69              	.LBE90:
  70              	.LBE89:
  57:../Libmaple/libmaple/wirish/wirish_time.h ****     uint32 ms;
  58:../Libmaple/libmaple/wirish/wirish_time.h ****     uint32 cycle_cnt;
  59:../Libmaple/libmaple/wirish/wirish_time.h ****     uint32 res;
  60:../Libmaple/libmaple/wirish/wirish_time.h **** 
  61:../Libmaple/libmaple/wirish/wirish_time.h ****     do {
  71              		.loc 1 61 0 discriminator 1
  72 000a 8342     		cmp	r3, r0
  73 000c F8D1     		bne	.L2
  74              	.LBB92:
  75              	.LBB93:
  97:../Libmaple/libmaple/libmaple/systick.h **** }
  98:../Libmaple/libmaple/libmaple/systick.h **** 
  99:../Libmaple/libmaple/libmaple/systick.h **** /**
 100:../Libmaple/libmaple/libmaple/systick.h ****  * @brief Check for underflow.
 101:../Libmaple/libmaple/libmaple/systick.h ****  *
 102:../Libmaple/libmaple/libmaple/systick.h ****  * This function returns 1 if the SysTick timer has counted to 0 since
 103:../Libmaple/libmaple/libmaple/systick.h ****  * the last time it was called.  However, any reads of any part of the
 104:../Libmaple/libmaple/libmaple/systick.h ****  * SysTick Control and Status Register SYSTICK_BASE->CSR will
 105:../Libmaple/libmaple/libmaple/systick.h ****  * interfere with this functionality.  See the ARM Cortex M3 Technical
 106:../Libmaple/libmaple/libmaple/systick.h ****  * Reference Manual for more details (e.g. Table 8-3 in revision r1p1).
 107:../Libmaple/libmaple/libmaple/systick.h ****  */
 108:../Libmaple/libmaple/libmaple/systick.h **** static inline uint32 systick_check_underflow(void) {
 109:../Libmaple/libmaple/libmaple/systick.h ****     return SYSTICK_BASE->CSR & SYSTICK_CSR_COUNTFLAG;
  76              		.loc 2 109 0
  77 000e 1068     		ldr	r0, [r2, #0]
  78              	.LBE93:
  79              	.LBE92:
  62:../Libmaple/libmaple/wirish/wirish_time.h ****         ms = millis();
  63:../Libmaple/libmaple/wirish/wirish_time.h ****         cycle_cnt = systick_get_count();
  64:../Libmaple/libmaple/wirish/wirish_time.h ****     } while (ms != millis());
  65:../Libmaple/libmaple/wirish/wirish_time.h **** 
  66:../Libmaple/libmaple/wirish/wirish_time.h ****     if(systick_check_underflow()) {
  80              		.loc 1 66 0
  81 0010 C003     		lsls	r0, r0, #15
  82 0012 01D5     		bpl	.L3
  83              	.LBB94:
  84              	.LBB95:
  96:../Libmaple/libmaple/libmaple/systick.h ****     return SYSTICK_BASE->CNT;
  85              		.loc 2 96 0
  86 0014 9168     		ldr	r1, [r2, #8]
  87              	.LBE95:
  88              	.LBE94:
  67:../Libmaple/libmaple/wirish/wirish_time.h ****     	ms++;
  89              		.loc 1 67 0
  90 0016 0133     		adds	r3, r3, #1
  91              	.LVL0:
  92              	.L3:
  68:../Libmaple/libmaple/wirish/wirish_time.h ****     	cycle_cnt = systick_get_count();
  69:../Libmaple/libmaple/wirish/wirish_time.h ****     }
  70:../Libmaple/libmaple/wirish/wirish_time.h **** 
  71:../Libmaple/libmaple/wirish/wirish_time.h ****     /* SYSTICK_RELOAD_VAL is 1 less than the number of cycles it
  72:../Libmaple/libmaple/wirish/wirish_time.h ****        actually takes to complete a SysTick reload */
  73:../Libmaple/libmaple/wirish/wirish_time.h ****     res = (ms * US_PER_MS) +
  74:../Libmaple/libmaple/wirish/wirish_time.h ****         (SYSTICK_RELOAD_VAL + 1 - cycle_cnt) / CYCLES_PER_MICROSECOND;
  93              		.loc 1 74 0
  94 0018 C1F52430 		rsb	r0, r1, #167936
  95 001c 4030     		adds	r0, r0, #64
  96 001e A822     		movs	r2, #168
  97 0020 B0FBF2F1 		udiv	r1, r0, r2
  98              	.LVL1:
  99              	.LBE78:
  75:../Libmaple/libmaple/wirish/wirish_time.h **** 
  76:../Libmaple/libmaple/wirish/wirish_time.h ****     return res;
  77:../Libmaple/libmaple/wirish/wirish_time.h **** }
 100              		.loc 1 77 0
 101 0024 4FF47A70 		mov	r0, #1000
 102 0028 00FB0310 		mla	r0, r0, r3, r1
 103 002c 7047     		bx	lr
 104              	.L10:
 105 002e 00BF     		.align	2
 106              	.L9:
 107 0030 00000000 		.word	systick_uptime_millis
 108 0034 10E000E0 		.word	-536813552
 109              		.cfi_endproc
 110              	.LFE56:
 112              		.section	.text.startup._Z7premainv,"ax",%progbits
 113              		.align	1
 114              		.global	_Z7premainv
 115              		.thumb
 116              		.thumb_func
 118              	_Z7premainv:
 119              	.LFB114:
 120              		.file 3 "/Users/imchipwood/Dropbox/AeroQuadGit/AeroQuad/AeroQuad32/AeroQuadMain.cpp"
   1:/Users/imchipwood/Dropbox/AeroQuadGit/AeroQuad/AeroQuad32/AeroQuadMain.cpp **** #include <../AeroQuad/UserConfiguration.h>
   2:/Users/imchipwood/Dropbox/AeroQuadGit/AeroQuad/AeroQuad32/AeroQuadMain.cpp **** #include <SerialMapping.h>
   3:/Users/imchipwood/Dropbox/AeroQuadGit/AeroQuad/AeroQuad32/AeroQuadMain.cpp **** #include <WProgram.h>
   4:/Users/imchipwood/Dropbox/AeroQuadGit/AeroQuad/AeroQuad32/AeroQuadMain.cpp **** 
   5:/Users/imchipwood/Dropbox/AeroQuadGit/AeroQuad/AeroQuad32/AeroQuadMain.cpp **** __attribute__(( constructor )) void premain() {
 121              		.loc 3 5 0
 122              		.cfi_startproc
 123              		@ args = 0, pretend = 0, frame = 0
 124              		@ frame_needed = 0, uses_anonymous_args = 0
 125              		@ link register save eliminated.
   6:/Users/imchipwood/Dropbox/AeroQuadGit/AeroQuad/AeroQuad32/AeroQuadMain.cpp ****     init();
   7:/Users/imchipwood/Dropbox/AeroQuadGit/AeroQuad/AeroQuad32/AeroQuadMain.cpp **** }
 126              		.loc 3 7 0
   6:/Users/imchipwood/Dropbox/AeroQuadGit/AeroQuad/AeroQuad32/AeroQuadMain.cpp ****     init();
 127              		.loc 3 6 0
 128 0000 FFF7FEBF 		b	_Z4initv
 129              	.LVL2:
 130              		.cfi_endproc
 131              	.LFE114:
 133              		.section	.init_array,"aw",%init_array
 134              		.align	2
 135 0000 00000000 		.word	_Z7premainv(target1)
 136              		.section	.text._init,"ax",%progbits
 137              		.align	1
 138              		.global	_init
 139              		.thumb
 140              		.thumb_func
 142              	_init:
 143              	.LFB115:
   8:/Users/imchipwood/Dropbox/AeroQuadGit/AeroQuad/AeroQuad32/AeroQuadMain.cpp **** 
   9:/Users/imchipwood/Dropbox/AeroQuadGit/AeroQuad/AeroQuad32/AeroQuadMain.cpp **** extern "C"{
  10:/Users/imchipwood/Dropbox/AeroQuadGit/AeroQuad/AeroQuad32/AeroQuadMain.cpp **** 	void _init(){}; // dummy _init function for support of GNU toolchain from https://launchpad.net/gc
 144              		.loc 3 10 0
 145              		.cfi_startproc
 146              		@ args = 0, pretend = 0, frame = 0
 147              		@ frame_needed = 0, uses_anonymous_args = 0
 148              		@ link register save eliminated.
 149 0000 7047     		bx	lr
 150              		.cfi_endproc
 151              	.LFE115:
 153              		.section	.text._Z23initializeReceiverParami,"ax",%progbits
 154              		.align	1
 155              		.global	_Z23initializeReceiverParami
 156              		.thumb
 157              		.thumb_func
 159              	_Z23initializeReceiverParami:
 160              	.LFB123:
 161              		.file 4 "../Libraries/AQ_Receiver/Receiver.h"
   1:../Libraries/AQ_Receiver/Receiver.h **** /*
   2:../Libraries/AQ_Receiver/Receiver.h ****   AeroQuad v3.0.1 - February 2012
   3:../Libraries/AQ_Receiver/Receiver.h ****   www.AeroQuad.com
   4:../Libraries/AQ_Receiver/Receiver.h ****   Copyright (c) 2012 Ted Carancho.  All rights reserved.
   5:../Libraries/AQ_Receiver/Receiver.h ****   An Open Source Arduino based multicopter.
   6:../Libraries/AQ_Receiver/Receiver.h ****  
   7:../Libraries/AQ_Receiver/Receiver.h ****   This program is free software: you can redistribute it and/or modify 
   8:../Libraries/AQ_Receiver/Receiver.h ****   it under the terms of the GNU General Public License as published by 
   9:../Libraries/AQ_Receiver/Receiver.h ****   the Free Software Foundation, either version 3 of the License, or 
  10:../Libraries/AQ_Receiver/Receiver.h ****   (at your option) any later version. 
  11:../Libraries/AQ_Receiver/Receiver.h **** 
  12:../Libraries/AQ_Receiver/Receiver.h ****   This program is distributed in the hope that it will be useful, 
  13:../Libraries/AQ_Receiver/Receiver.h ****   but WITHOUT ANY WARRANTY; without even the implied warranty of 
  14:../Libraries/AQ_Receiver/Receiver.h ****   MERCHANTABILITY or FITNESS FOR A PARTICULAR PURPOSE. See the 
  15:../Libraries/AQ_Receiver/Receiver.h ****   GNU General Public License for more details. 
  16:../Libraries/AQ_Receiver/Receiver.h **** 
  17:../Libraries/AQ_Receiver/Receiver.h ****   You should have received a copy of the GNU General Public License 
  18:../Libraries/AQ_Receiver/Receiver.h ****   along with this program. If not, see <http://www.gnu.org/licenses/>. 
  19:../Libraries/AQ_Receiver/Receiver.h **** */
  20:../Libraries/AQ_Receiver/Receiver.h **** 
  21:../Libraries/AQ_Receiver/Receiver.h **** #ifndef _AEROQUAD_RECEIVER_H_
  22:../Libraries/AQ_Receiver/Receiver.h **** #define _AEROQUAD_RECEIVER_H_
  23:../Libraries/AQ_Receiver/Receiver.h **** 
  24:../Libraries/AQ_Receiver/Receiver.h **** #include "Arduino.h"
  25:../Libraries/AQ_Receiver/Receiver.h **** 
  26:../Libraries/AQ_Receiver/Receiver.h **** #define PWM2RAD 0.002 //  Based upon 5RAD for full stick movement, you take this times the RAD to g
  27:../Libraries/AQ_Receiver/Receiver.h **** 
  28:../Libraries/AQ_Receiver/Receiver.h **** // Receiver variables
  29:../Libraries/AQ_Receiver/Receiver.h **** #define TIMEOUT 25000
  30:../Libraries/AQ_Receiver/Receiver.h **** #define MINCOMMAND 1000
  31:../Libraries/AQ_Receiver/Receiver.h **** #define MIDCOMMAND 1500
  32:../Libraries/AQ_Receiver/Receiver.h **** #define MAXCOMMAND 2000
  33:../Libraries/AQ_Receiver/Receiver.h **** #define MINDELTA 200
  34:../Libraries/AQ_Receiver/Receiver.h **** #define MINCHECK (MINCOMMAND + 100)
  35:../Libraries/AQ_Receiver/Receiver.h **** #define MAXCHECK (MAXCOMMAND - 100)
  36:../Libraries/AQ_Receiver/Receiver.h **** #define MINTHROTTLE (MINCOMMAND + 100)
  37:../Libraries/AQ_Receiver/Receiver.h **** #define LEVELOFF 100
  38:../Libraries/AQ_Receiver/Receiver.h **** #define MAX_NB_CHANNEL 10
  39:../Libraries/AQ_Receiver/Receiver.h **** 
  40:../Libraries/AQ_Receiver/Receiver.h **** int lastReceiverChannel = 0;
  41:../Libraries/AQ_Receiver/Receiver.h **** 
  42:../Libraries/AQ_Receiver/Receiver.h **** float receiverXmitFactor = 0.0;
  43:../Libraries/AQ_Receiver/Receiver.h **** int receiverData[MAX_NB_CHANNEL] = {0,0,0,0,0,0,0,0,0,0};
  44:../Libraries/AQ_Receiver/Receiver.h **** int receiverZero[3] = {0,0,0};
  45:../Libraries/AQ_Receiver/Receiver.h **** int receiverCommand[MAX_NB_CHANNEL] = {0,0,0,0,0,0,0,0,0,0};
  46:../Libraries/AQ_Receiver/Receiver.h **** int receiverCommandSmooth[MAX_NB_CHANNEL] = {0,0,0,0,0,0,0,0,0,0,};
  47:../Libraries/AQ_Receiver/Receiver.h **** float receiverSlope[MAX_NB_CHANNEL] = {0.0,0.0,0.0,0.0,0.0,0.0,0.0,0.0,0.0,0.0};
  48:../Libraries/AQ_Receiver/Receiver.h **** float receiverOffset[MAX_NB_CHANNEL] = {0.0,0.0,0.0,0.0,0.0,0.0,0.0,0.0,0.0,0.0};
  49:../Libraries/AQ_Receiver/Receiver.h **** float receiverSmoothFactor[MAX_NB_CHANNEL] = {0.0,0.0,0.0,0.0,0.0,0.0,0.0,0.0,0.0,0.0};
  50:../Libraries/AQ_Receiver/Receiver.h **** int channelCal;
  51:../Libraries/AQ_Receiver/Receiver.h **** 
  52:../Libraries/AQ_Receiver/Receiver.h **** void initializeReceiverParam(int nbChannel = 6) {
 162              		.loc 4 52 0
 163              		.cfi_startproc
 164              		@ args = 0, pretend = 0, frame = 0
 165              		@ frame_needed = 0, uses_anonymous_args = 0
 166              		@ link register save eliminated.
 167              	.LVL3:
 168              	.LBB96:
  53:../Libraries/AQ_Receiver/Receiver.h ****   
  54:../Libraries/AQ_Receiver/Receiver.h ****   lastReceiverChannel = nbChannel;
 169              		.loc 4 54 0
 170 0000 224B     		ldr	r3, .L26
  55:../Libraries/AQ_Receiver/Receiver.h **** 
  56:../Libraries/AQ_Receiver/Receiver.h ****   receiverCommand[XAXIS] = 1500;
 171              		.loc 4 56 0
 172 0002 2349     		ldr	r1, .L26+4
  54:../Libraries/AQ_Receiver/Receiver.h ****   lastReceiverChannel = nbChannel;
 173              		.loc 4 54 0
 174 0004 1860     		str	r0, [r3, #0]
 175              		.loc 4 56 0
 176 0006 40F2DC52 		movw	r2, #1500
  57:../Libraries/AQ_Receiver/Receiver.h ****   receiverCommand[YAXIS] = 1500;
  58:../Libraries/AQ_Receiver/Receiver.h ****   receiverCommand[ZAXIS] = 1500;
  59:../Libraries/AQ_Receiver/Receiver.h ****   receiverCommand[THROTTLE] = 1000;
 177              		.loc 4 59 0
 178 000a 4FF47A73 		mov	r3, #1000
 179 000e CB60     		str	r3, [r1, #12]
  60:../Libraries/AQ_Receiver/Receiver.h ****   receiverCommand[MODE] = 1000;
 180              		.loc 4 60 0
 181 0010 0B61     		str	r3, [r1, #16]
  61:../Libraries/AQ_Receiver/Receiver.h ****   receiverCommand[AUX1] = 1000;
 182              		.loc 4 61 0
 183 0012 4B61     		str	r3, [r1, #20]
  62:../Libraries/AQ_Receiver/Receiver.h ****   receiverCommand[AUX2] = 1000;
 184              		.loc 4 62 0
 185 0014 8B61     		str	r3, [r1, #24]
  63:../Libraries/AQ_Receiver/Receiver.h ****   receiverCommand[AUX3] = 1000;
 186              		.loc 4 63 0
 187 0016 CB61     		str	r3, [r1, #28]
  64:../Libraries/AQ_Receiver/Receiver.h ****   receiverCommand[AUX4] = 1000;
 188              		.loc 4 64 0
 189 0018 0B62     		str	r3, [r1, #32]
  65:../Libraries/AQ_Receiver/Receiver.h ****   receiverCommand[AUX5] = 1000;
 190              		.loc 4 65 0
 191 001a 4B62     		str	r3, [r1, #36]
 192              	.LVL4:
  56:../Libraries/AQ_Receiver/Receiver.h ****   receiverCommand[XAXIS] = 1500;
 193              		.loc 4 56 0
 194 001c 0A60     		str	r2, [r1, #0]
  57:../Libraries/AQ_Receiver/Receiver.h ****   receiverCommand[YAXIS] = 1500;
 195              		.loc 4 57 0
 196 001e 4A60     		str	r2, [r1, #4]
  58:../Libraries/AQ_Receiver/Receiver.h ****   receiverCommand[ZAXIS] = 1500;
 197              		.loc 4 58 0
 198 0020 8A60     		str	r2, [r1, #8]
 199              	.LBB97:
  66:../Libraries/AQ_Receiver/Receiver.h ****   
  67:../Libraries/AQ_Receiver/Receiver.h ****   for (byte channel = XAXIS; channel < lastReceiverChannel; channel++) {
 200              		.loc 4 67 0
 201 0022 0023     		movs	r3, #0
 202              	.LVL5:
 203              	.L14:
 204              		.loc 4 67 0 is_stmt 0 discriminator 1
 205 0024 8342     		cmp	r3, r0
 206 0026 06DA     		bge	.L22
 207              	.L15:
  68:../Libraries/AQ_Receiver/Receiver.h ****     receiverCommandSmooth[channel] = 1.0;
 208              		.loc 4 68 0 is_stmt 1 discriminator 2
 209 0028 1A4A     		ldr	r2, .L26+8
 210 002a 0121     		movs	r1, #1
 211 002c 42F82310 		str	r1, [r2, r3, lsl #2]
  67:../Libraries/AQ_Receiver/Receiver.h ****   for (byte channel = XAXIS; channel < lastReceiverChannel; channel++) {
 212              		.loc 4 67 0 discriminator 2
 213 0030 5B18     		adds	r3, r3, r1
 214              	.LVL6:
 215 0032 DBB2     		uxtb	r3, r3
 216              	.LVL7:
 217 0034 F6E7     		b	.L14
 218              	.L22:
 219              	.LVL8:
 220              	.LBE97:
 221              	.LBB98:
  69:../Libraries/AQ_Receiver/Receiver.h ****   }
  70:../Libraries/AQ_Receiver/Receiver.h ****   for (byte channel = XAXIS; channel < THROTTLE; channel++) {
  71:../Libraries/AQ_Receiver/Receiver.h ****     receiverZero[channel] = 1500;
 222              		.loc 4 71 0 discriminator 1
 223 0036 1849     		ldr	r1, .L26+12
 224 0038 40F2DC52 		movw	r2, #1500
 225 003c 0A60     		str	r2, [r1, #0]
 226              	.LVL9:
 227 003e 4A60     		str	r2, [r1, #4]
 228              	.LVL10:
 229 0040 8A60     		str	r2, [r1, #8]
 230              	.LVL11:
 231 0042 0023     		movs	r3, #0
 232              	.LVL12:
 233              	.L16:
 234              	.LBE98:
 235              	.LBB99:
  72:../Libraries/AQ_Receiver/Receiver.h ****   }
  73:../Libraries/AQ_Receiver/Receiver.h **** 	
  74:../Libraries/AQ_Receiver/Receiver.h ****   for (byte channel = XAXIS; channel < lastReceiverChannel; channel++) {
 236              		.loc 4 74 0 discriminator 1
 237 0044 8342     		cmp	r3, r0
 238 0046 08DA     		bge	.L23
 239              	.L17:
  75:../Libraries/AQ_Receiver/Receiver.h ****     receiverSlope[channel] = 1;
 240              		.loc 4 75 0 discriminator 2
 241 0048 144A     		ldr	r2, .L26+16
 242 004a 02EB8302 		add	r2, r2, r3, lsl #2
 243 004e 4FF07E51 		mov	r1, #1065353216
  74:../Libraries/AQ_Receiver/Receiver.h ****   for (byte channel = XAXIS; channel < lastReceiverChannel; channel++) {
 244              		.loc 4 74 0 discriminator 2
 245 0052 0133     		adds	r3, r3, #1
 246              	.LVL13:
 247              		.loc 4 75 0 discriminator 2
 248 0054 1160     		str	r1, [r2, #0]	@ float
  74:../Libraries/AQ_Receiver/Receiver.h ****   for (byte channel = XAXIS; channel < lastReceiverChannel; channel++) {
 249              		.loc 4 74 0 discriminator 2
 250 0056 DBB2     		uxtb	r3, r3
 251              	.LVL14:
 252 0058 F4E7     		b	.L16
 253              	.L23:
  74:../Libraries/AQ_Receiver/Receiver.h ****   for (byte channel = XAXIS; channel < lastReceiverChannel; channel++) {
 254              		.loc 4 74 0 is_stmt 0
 255 005a 0023     		movs	r3, #0
 256              	.LVL15:
 257              	.L18:
 258              	.LBE99:
 259              	.LBB100:
  76:../Libraries/AQ_Receiver/Receiver.h ****   }	
  77:../Libraries/AQ_Receiver/Receiver.h ****   for (byte channel = XAXIS; channel < lastReceiverChannel; channel++) {
 260              		.loc 4 77 0 is_stmt 1 discriminator 1
 261 005c 8342     		cmp	r3, r0
 262 005e 08DA     		bge	.L24
 263              	.L19:
  78:../Libraries/AQ_Receiver/Receiver.h ****     receiverOffset[channel] = 1;
 264              		.loc 4 78 0 discriminator 2
 265 0060 0F4A     		ldr	r2, .L26+20
 266 0062 02EB8302 		add	r2, r2, r3, lsl #2
 267 0066 4FF07E51 		mov	r1, #1065353216
  77:../Libraries/AQ_Receiver/Receiver.h ****   for (byte channel = XAXIS; channel < lastReceiverChannel; channel++) {
 268              		.loc 4 77 0 discriminator 2
 269 006a 0133     		adds	r3, r3, #1
 270              	.LVL16:
 271              		.loc 4 78 0 discriminator 2
 272 006c 1160     		str	r1, [r2, #0]	@ float
  77:../Libraries/AQ_Receiver/Receiver.h ****   for (byte channel = XAXIS; channel < lastReceiverChannel; channel++) {
 273              		.loc 4 77 0 discriminator 2
 274 006e DBB2     		uxtb	r3, r3
 275              	.LVL17:
 276 0070 F4E7     		b	.L18
 277              	.L24:
  77:../Libraries/AQ_Receiver/Receiver.h ****   for (byte channel = XAXIS; channel < lastReceiverChannel; channel++) {
 278              		.loc 4 77 0 is_stmt 0
 279 0072 0023     		movs	r3, #0
 280              	.LVL18:
 281              	.L20:
 282              	.LBE100:
 283              	.LBB101:
  79:../Libraries/AQ_Receiver/Receiver.h ****   }
  80:../Libraries/AQ_Receiver/Receiver.h ****   for (byte channel = XAXIS; channel < lastReceiverChannel; channel++) {
 284              		.loc 4 80 0 is_stmt 1 discriminator 1
 285 0074 8342     		cmp	r3, r0
 286 0076 08DA     		bge	.L25
 287              	.L21:
  81:../Libraries/AQ_Receiver/Receiver.h ****     receiverSmoothFactor[channel] = 1; 
 288              		.loc 4 81 0 discriminator 2
 289 0078 0A49     		ldr	r1, .L26+24
 290 007a 01EB8302 		add	r2, r1, r3, lsl #2
 291 007e 4FF07E51 		mov	r1, #1065353216
  80:../Libraries/AQ_Receiver/Receiver.h ****   for (byte channel = XAXIS; channel < lastReceiverChannel; channel++) {
 292              		.loc 4 80 0 discriminator 2
 293 0082 0133     		adds	r3, r3, #1
 294              	.LVL19:
 295              		.loc 4 81 0 discriminator 2
 296 0084 1160     		str	r1, [r2, #0]	@ float
  80:../Libraries/AQ_Receiver/Receiver.h ****   for (byte channel = XAXIS; channel < lastReceiverChannel; channel++) {
 297              		.loc 4 80 0 discriminator 2
 298 0086 DBB2     		uxtb	r3, r3
 299              	.LVL20:
 300 0088 F4E7     		b	.L20
 301              	.L25:
 302              	.LBE101:
 303              	.LBE96:
  82:../Libraries/AQ_Receiver/Receiver.h ****   }
  83:../Libraries/AQ_Receiver/Receiver.h **** }
 304              		.loc 4 83 0
 305 008a 7047     		bx	lr
 306              	.L27:
 307              		.align	2
 308              	.L26:
 309 008c 00000000 		.word	.LANCHOR0
 310 0090 00000000 		.word	.LANCHOR1
 311 0094 00000000 		.word	.LANCHOR2
 312 0098 00000000 		.word	.LANCHOR3
 313 009c 00000000 		.word	.LANCHOR4
 314 00a0 00000000 		.word	.LANCHOR5
 315 00a4 00000000 		.word	.LANCHOR6
 316              		.cfi_endproc
 317              	.LFE123:
 319              		.section	.text._Z17getReceiverSIDatah,"ax",%progbits
 320              		.align	1
 321              		.global	_Z17getReceiverSIDatah
 322              		.thumb
 323              		.thumb_func
 325              	_Z17getReceiverSIDatah:
 326              	.LFB125:
  84:../Libraries/AQ_Receiver/Receiver.h ****   
  85:../Libraries/AQ_Receiver/Receiver.h **** int getRawChannelValue(byte channel);  
  86:../Libraries/AQ_Receiver/Receiver.h **** void readReceiver();
  87:../Libraries/AQ_Receiver/Receiver.h ****   
  88:../Libraries/AQ_Receiver/Receiver.h **** void readReceiver()
  89:../Libraries/AQ_Receiver/Receiver.h **** {
  90:../Libraries/AQ_Receiver/Receiver.h ****   for(byte channel = XAXIS; channel < lastReceiverChannel; channel++) {
  91:../Libraries/AQ_Receiver/Receiver.h **** 
  92:../Libraries/AQ_Receiver/Receiver.h ****     // Apply receiver calibration adjustment
  93:../Libraries/AQ_Receiver/Receiver.h ****     receiverData[channel] = (receiverSlope[channel] * getRawChannelValue(channel)) + receiverOffset
  94:../Libraries/AQ_Receiver/Receiver.h ****     // Smooth the flight control receiver inputs
  95:../Libraries/AQ_Receiver/Receiver.h ****     receiverCommandSmooth[channel] = filterSmooth(receiverData[channel], receiverCommandSmooth[chan
  96:../Libraries/AQ_Receiver/Receiver.h ****   }
  97:../Libraries/AQ_Receiver/Receiver.h ****   
  98:../Libraries/AQ_Receiver/Receiver.h ****   // Reduce receiver commands using receiverXmitFactor and center around 1500
  99:../Libraries/AQ_Receiver/Receiver.h ****   for (byte channel = XAXIS; channel < THROTTLE; channel++) {
 100:../Libraries/AQ_Receiver/Receiver.h ****     receiverCommand[channel] = ((receiverCommandSmooth[channel] - receiverZero[channel]) * receiver
 101:../Libraries/AQ_Receiver/Receiver.h ****   }	
 102:../Libraries/AQ_Receiver/Receiver.h ****   // No xmitFactor reduction applied for throttle, mode and AUX
 103:../Libraries/AQ_Receiver/Receiver.h ****   for (byte channel = THROTTLE; channel < lastReceiverChannel; channel++) {
 104:../Libraries/AQ_Receiver/Receiver.h ****     receiverCommand[channel] = receiverCommandSmooth[channel];
 105:../Libraries/AQ_Receiver/Receiver.h ****   }
 106:../Libraries/AQ_Receiver/Receiver.h **** }
 107:../Libraries/AQ_Receiver/Receiver.h **** 
 108:../Libraries/AQ_Receiver/Receiver.h **** 
 109:../Libraries/AQ_Receiver/Receiver.h **** void setChannelValue(byte channel,int value);
 110:../Libraries/AQ_Receiver/Receiver.h ****   
 111:../Libraries/AQ_Receiver/Receiver.h **** // return the smoothed & scaled number of radians/sec in stick movement - zero centered
 112:../Libraries/AQ_Receiver/Receiver.h **** const float getReceiverSIData(byte channel) {
 327              		.loc 4 112 0
 328              		.cfi_startproc
 329              		@ args = 0, pretend = 0, frame = 0
 330              		@ frame_needed = 0, uses_anonymous_args = 0
 331              		@ link register save eliminated.
 332              	.LVL21:
 113:../Libraries/AQ_Receiver/Receiver.h ****   return ((receiverCommand[channel] - receiverZero[channel]) * (2.5 * PWM2RAD));  // +/- 2.5RPS 50%
 333              		.loc 4 113 0
 334 0000 084B     		ldr	r3, .L29
 335 0002 0949     		ldr	r1, .L29+4
 336 0004 53F82020 		ldr	r2, [r3, r0, lsl #2]
 337 0008 51F82000 		ldr	r0, [r1, r0, lsl #2]
 338              	.LVL22:
 339 000c 131A     		subs	r3, r2, r0
 340 000e 07EE903A 		fmsr	s15, r3	@ int
 114:../Libraries/AQ_Receiver/Receiver.h **** }
 341              		.loc 4 114 0
 342 0012 9FED060A 		flds	s0, .L29+8
 113:../Libraries/AQ_Receiver/Receiver.h ****   return ((receiverCommand[channel] - receiverZero[channel]) * (2.5 * PWM2RAD));  // +/- 2.5RPS 50%
 343              		.loc 4 113 0
 344 0016 B8EEE77A 		fsitos	s14, s15
 345              		.loc 4 114 0
 346 001a 67EE000A 		fmuls	s1, s14, s0
 347 001e 10EE900A 		fmrs	r0, s1
 348 0022 7047     		bx	lr
 349              	.L30:
 350              		.align	2
 351              	.L29:
 352 0024 00000000 		.word	.LANCHOR1
 353 0028 00000000 		.word	.LANCHOR3
 354 002c 0BD7A33B 		.word	1000593163
 355              		.cfi_endproc
 356              	.LFE125:
 358              		.section	.text._Z9updatePIDffP7PIDdata,"ax",%progbits
 359              		.align	1
 360              		.global	_Z9updatePIDffP7PIDdata
 361              		.thumb
 362              		.thumb_func
 364              	_Z9updatePIDffP7PIDdata:
 365              	.LFB126:
 366              		.file 5 "/Users/imchipwood/Dropbox/AeroQuadGit/AeroQuad/AeroQuad32/../AeroQuad/PID.h"
   1:/Users/imchipwood/Dropbox/AeroQuadGit/AeroQuad/AeroQuad32/../AeroQuad/PID.h **** /*
   2:/Users/imchipwood/Dropbox/AeroQuadGit/AeroQuad/AeroQuad32/../AeroQuad/PID.h ****   AeroQuad v3.0.1 - February 2012
   3:/Users/imchipwood/Dropbox/AeroQuadGit/AeroQuad/AeroQuad32/../AeroQuad/PID.h ****   www.AeroQuad.com
   4:/Users/imchipwood/Dropbox/AeroQuadGit/AeroQuad/AeroQuad32/../AeroQuad/PID.h ****   Copyright (c) 2012 Ted Carancho.  All rights reserved.
   5:/Users/imchipwood/Dropbox/AeroQuadGit/AeroQuad/AeroQuad32/../AeroQuad/PID.h ****   An Open Source Arduino based multicopter.
   6:/Users/imchipwood/Dropbox/AeroQuadGit/AeroQuad/AeroQuad32/../AeroQuad/PID.h ****  
   7:/Users/imchipwood/Dropbox/AeroQuadGit/AeroQuad/AeroQuad32/../AeroQuad/PID.h ****   This program is free software: you can redistribute it and/or modify 
   8:/Users/imchipwood/Dropbox/AeroQuadGit/AeroQuad/AeroQuad32/../AeroQuad/PID.h ****   it under the terms of the GNU General Public License as published by 
   9:/Users/imchipwood/Dropbox/AeroQuadGit/AeroQuad/AeroQuad32/../AeroQuad/PID.h ****   the Free Software Foundation, either version 3 of the License, or 
  10:/Users/imchipwood/Dropbox/AeroQuadGit/AeroQuad/AeroQuad32/../AeroQuad/PID.h ****   (at your option) any later version. 
  11:/Users/imchipwood/Dropbox/AeroQuadGit/AeroQuad/AeroQuad32/../AeroQuad/PID.h **** 
  12:/Users/imchipwood/Dropbox/AeroQuadGit/AeroQuad/AeroQuad32/../AeroQuad/PID.h ****   This program is distributed in the hope that it will be useful, 
  13:/Users/imchipwood/Dropbox/AeroQuadGit/AeroQuad/AeroQuad32/../AeroQuad/PID.h ****   but WITHOUT ANY WARRANTY; without even the implied warranty of 
  14:/Users/imchipwood/Dropbox/AeroQuadGit/AeroQuad/AeroQuad32/../AeroQuad/PID.h ****   MERCHANTABILITY or FITNESS FOR A PARTICULAR PURPOSE. See the 
  15:/Users/imchipwood/Dropbox/AeroQuadGit/AeroQuad/AeroQuad32/../AeroQuad/PID.h ****   GNU General Public License for more details. 
  16:/Users/imchipwood/Dropbox/AeroQuadGit/AeroQuad/AeroQuad32/../AeroQuad/PID.h **** 
  17:/Users/imchipwood/Dropbox/AeroQuadGit/AeroQuad/AeroQuad32/../AeroQuad/PID.h ****   You should have received a copy of the GNU General Public License 
  18:/Users/imchipwood/Dropbox/AeroQuadGit/AeroQuad/AeroQuad32/../AeroQuad/PID.h ****   along with this program. If not, see <http://www.gnu.org/licenses/>. 
  19:/Users/imchipwood/Dropbox/AeroQuadGit/AeroQuad/AeroQuad32/../AeroQuad/PID.h **** */
  20:/Users/imchipwood/Dropbox/AeroQuadGit/AeroQuad/AeroQuad32/../AeroQuad/PID.h **** 
  21:/Users/imchipwood/Dropbox/AeroQuadGit/AeroQuad/AeroQuad32/../AeroQuad/PID.h **** #ifndef _AQ_PID_H_
  22:/Users/imchipwood/Dropbox/AeroQuadGit/AeroQuad/AeroQuad32/../AeroQuad/PID.h **** #define _AQ_PID_H_
  23:/Users/imchipwood/Dropbox/AeroQuadGit/AeroQuad/AeroQuad32/../AeroQuad/PID.h **** 
  24:/Users/imchipwood/Dropbox/AeroQuadGit/AeroQuad/AeroQuad32/../AeroQuad/PID.h **** enum {
  25:/Users/imchipwood/Dropbox/AeroQuadGit/AeroQuad/AeroQuad32/../AeroQuad/PID.h ****   RATE_XAXIS_PID_IDX = 0,
  26:/Users/imchipwood/Dropbox/AeroQuadGit/AeroQuad/AeroQuad32/../AeroQuad/PID.h ****   RATE_YAXIS_PID_IDX,
  27:/Users/imchipwood/Dropbox/AeroQuadGit/AeroQuad/AeroQuad32/../AeroQuad/PID.h ****   ZAXIS_PID_IDX,
  28:/Users/imchipwood/Dropbox/AeroQuadGit/AeroQuad/AeroQuad32/../AeroQuad/PID.h ****   ATTITUDE_XAXIS_PID_IDX,
  29:/Users/imchipwood/Dropbox/AeroQuadGit/AeroQuad/AeroQuad32/../AeroQuad/PID.h ****   ATTITUDE_YAXIS_PID_IDX,
  30:/Users/imchipwood/Dropbox/AeroQuadGit/AeroQuad/AeroQuad32/../AeroQuad/PID.h ****   HEADING_HOLD_PID_IDX,
  31:/Users/imchipwood/Dropbox/AeroQuadGit/AeroQuad/AeroQuad32/../AeroQuad/PID.h ****   ATTITUDE_GYRO_XAXIS_PID_IDX,
  32:/Users/imchipwood/Dropbox/AeroQuadGit/AeroQuad/AeroQuad32/../AeroQuad/PID.h ****   ATTITUDE_GYRO_YAXIS_PID_IDX,
  33:/Users/imchipwood/Dropbox/AeroQuadGit/AeroQuad/AeroQuad32/../AeroQuad/PID.h ****   #if defined AltitudeHoldBaro || defined AltitudeHoldRangeFinder
  34:/Users/imchipwood/Dropbox/AeroQuadGit/AeroQuad/AeroQuad32/../AeroQuad/PID.h ****     BARO_ALTITUDE_HOLD_PID_IDX,
  35:/Users/imchipwood/Dropbox/AeroQuadGit/AeroQuad/AeroQuad32/../AeroQuad/PID.h ****     ZDAMPENING_PID_IDX,
  36:/Users/imchipwood/Dropbox/AeroQuadGit/AeroQuad/AeroQuad32/../AeroQuad/PID.h ****   #endif
  37:/Users/imchipwood/Dropbox/AeroQuadGit/AeroQuad/AeroQuad32/../AeroQuad/PID.h ****   #if defined AltitudeHoldRangeFinder
  38:/Users/imchipwood/Dropbox/AeroQuadGit/AeroQuad/AeroQuad32/../AeroQuad/PID.h ****     SONAR_ALTITUDE_HOLD_PID_IDX,
  39:/Users/imchipwood/Dropbox/AeroQuadGit/AeroQuad/AeroQuad32/../AeroQuad/PID.h ****   #endif
  40:/Users/imchipwood/Dropbox/AeroQuadGit/AeroQuad/AeroQuad32/../AeroQuad/PID.h ****   #if defined UseGPSNavigator
  41:/Users/imchipwood/Dropbox/AeroQuadGit/AeroQuad/AeroQuad32/../AeroQuad/PID.h ****     GPSPITCH_PID_IDX,
  42:/Users/imchipwood/Dropbox/AeroQuadGit/AeroQuad/AeroQuad32/../AeroQuad/PID.h ****     GPSROLL_PID_IDX,
  43:/Users/imchipwood/Dropbox/AeroQuadGit/AeroQuad/AeroQuad32/../AeroQuad/PID.h ****     GPSYAW_PID_IDX,
  44:/Users/imchipwood/Dropbox/AeroQuadGit/AeroQuad/AeroQuad32/../AeroQuad/PID.h ****   #endif    
  45:/Users/imchipwood/Dropbox/AeroQuadGit/AeroQuad/AeroQuad32/../AeroQuad/PID.h **** 
  46:/Users/imchipwood/Dropbox/AeroQuadGit/AeroQuad/AeroQuad32/../AeroQuad/PID.h ****   LAST_PID_IDX  // keep this definition at the end of this enum
  47:/Users/imchipwood/Dropbox/AeroQuadGit/AeroQuad/AeroQuad32/../AeroQuad/PID.h **** };
  48:/Users/imchipwood/Dropbox/AeroQuadGit/AeroQuad/AeroQuad32/../AeroQuad/PID.h **** 
  49:/Users/imchipwood/Dropbox/AeroQuadGit/AeroQuad/AeroQuad32/../AeroQuad/PID.h **** //// PID Variables
  50:/Users/imchipwood/Dropbox/AeroQuadGit/AeroQuad/AeroQuad32/../AeroQuad/PID.h **** struct PIDdata {
  51:/Users/imchipwood/Dropbox/AeroQuadGit/AeroQuad/AeroQuad32/../AeroQuad/PID.h ****   float P, I, D;
  52:/Users/imchipwood/Dropbox/AeroQuadGit/AeroQuad/AeroQuad32/../AeroQuad/PID.h ****   float lastError;
  53:/Users/imchipwood/Dropbox/AeroQuadGit/AeroQuad/AeroQuad32/../AeroQuad/PID.h ****   // AKA experiments with PID
  54:/Users/imchipwood/Dropbox/AeroQuadGit/AeroQuad/AeroQuad32/../AeroQuad/PID.h ****   float previousPIDTime;
  55:/Users/imchipwood/Dropbox/AeroQuadGit/AeroQuad/AeroQuad32/../AeroQuad/PID.h ****   float integratedError;
  56:/Users/imchipwood/Dropbox/AeroQuadGit/AeroQuad/AeroQuad32/../AeroQuad/PID.h ****   float windupGuard; // Thinking about having individual wind up guards for each PID
  57:/Users/imchipwood/Dropbox/AeroQuadGit/AeroQuad/AeroQuad32/../AeroQuad/PID.h **** } PID[LAST_PID_IDX];
  58:/Users/imchipwood/Dropbox/AeroQuadGit/AeroQuad/AeroQuad32/../AeroQuad/PID.h **** 
  59:/Users/imchipwood/Dropbox/AeroQuadGit/AeroQuad/AeroQuad32/../AeroQuad/PID.h **** // This struct above declares the variable PID[] to hold each of the PID values for various functio
  60:/Users/imchipwood/Dropbox/AeroQuadGit/AeroQuad/AeroQuad32/../AeroQuad/PID.h **** // The following constants are declared in AeroQuad.h
  61:/Users/imchipwood/Dropbox/AeroQuadGit/AeroQuad/AeroQuad32/../AeroQuad/PID.h **** // ROLL = 0, PITCH = 1, YAW = 2 (used for Arcobatic Mode, gyros only)
  62:/Users/imchipwood/Dropbox/AeroQuadGit/AeroQuad/AeroQuad32/../AeroQuad/PID.h **** // ROLLLEVEL = 3, PITCHLEVEL = 4, LEVELGYROROLL = 6, LEVELGYROPITCH = 7 (used for Stable Mode, acce
  63:/Users/imchipwood/Dropbox/AeroQuadGit/AeroQuad/AeroQuad32/../AeroQuad/PID.h **** // HEADING = 5 (used for heading hold)
  64:/Users/imchipwood/Dropbox/AeroQuadGit/AeroQuad/AeroQuad32/../AeroQuad/PID.h **** // ALTITUDE = 8 (used for altitude hold)
  65:/Users/imchipwood/Dropbox/AeroQuadGit/AeroQuad/AeroQuad32/../AeroQuad/PID.h **** // ZDAMPENING = 9 (used in altitude hold to dampen vertical accelerations)
  66:/Users/imchipwood/Dropbox/AeroQuadGit/AeroQuad/AeroQuad32/../AeroQuad/PID.h **** float windupGuard; // Read in from EEPROM
  67:/Users/imchipwood/Dropbox/AeroQuadGit/AeroQuad/AeroQuad32/../AeroQuad/PID.h **** //// Modified from http://www.arduino.cc/playground/Main/BarebonesPIDForEspresso
  68:/Users/imchipwood/Dropbox/AeroQuadGit/AeroQuad/AeroQuad32/../AeroQuad/PID.h **** float updatePID(float targetPosition, float currentPosition, struct PIDdata *PIDparameters) {
 367              		.loc 5 68 0
 368              		.cfi_startproc
 369              		@ args = 0, pretend = 0, frame = 0
 370              		@ frame_needed = 0, uses_anonymous_args = 0
 371              		@ link register save eliminated.
 372              	.LVL23:
 373              	.LBB102:
  69:/Users/imchipwood/Dropbox/AeroQuadGit/AeroQuad/AeroQuad32/../AeroQuad/PID.h **** 
  70:/Users/imchipwood/Dropbox/AeroQuadGit/AeroQuad/AeroQuad32/../AeroQuad/PID.h ****   // AKA PID experiments
  71:/Users/imchipwood/Dropbox/AeroQuadGit/AeroQuad/AeroQuad32/../AeroQuad/PID.h ****   const float deltaPIDTime = (currentTime - PIDparameters->previousPIDTime) / 1000000.0;
 374              		.loc 5 71 0
 375 0000 294B     		ldr	r3, .L38
 376 0002 D3ED007A 		flds	s15, [r3, #0]	@ int
 377 0006 92ED045A 		flds	s10, [r2, #16]
 378 000a B8EE670A 		fuitos	s0, s15
  72:/Users/imchipwood/Dropbox/AeroQuadGit/AeroQuad/AeroQuad32/../AeroQuad/PID.h **** 
  73:/Users/imchipwood/Dropbox/AeroQuadGit/AeroQuad/AeroQuad32/../AeroQuad/PID.h ****   PIDparameters->previousPIDTime = currentTime;  // AKA PID experiments
  74:/Users/imchipwood/Dropbox/AeroQuadGit/AeroQuad/AeroQuad32/../AeroQuad/PID.h ****   float error = targetPosition - currentPosition;
 379              		.loc 5 74 0
 380 000e 01EE900A 		fmsr	s3, r0
  75:/Users/imchipwood/Dropbox/AeroQuadGit/AeroQuad/AeroQuad32/../AeroQuad/PID.h **** 
  76:/Users/imchipwood/Dropbox/AeroQuadGit/AeroQuad/AeroQuad32/../AeroQuad/PID.h ****   if (inFlight) {
 381              		.loc 5 76 0
 382 0012 2648     		ldr	r0, .L38+4
 383              	.LVL24:
 384              	.LBE102:
  68:/Users/imchipwood/Dropbox/AeroQuadGit/AeroQuad/AeroQuad32/../AeroQuad/PID.h **** float updatePID(float targetPosition, float currentPosition, struct PIDdata *PIDparameters) {
 385              		.loc 5 68 0
 386 0014 07EE101A 		fmsr	s14, r1
 387              	.LBB103:
  71:/Users/imchipwood/Dropbox/AeroQuadGit/AeroQuad/AeroQuad32/../AeroQuad/PID.h ****   const float deltaPIDTime = (currentTime - PIDparameters->previousPIDTime) / 1000000.0;
 388              		.loc 5 71 0
 389 0018 70EE450A 		fsubs	s1, s0, s10
 390 001c DFED246A 		flds	s13, .L38+8
 391              		.loc 5 76 0
 392 0020 0178     		ldrb	r1, [r0, #0]	@ zero_extendqisi2
 393              	.LVL25:
  71:/Users/imchipwood/Dropbox/AeroQuadGit/AeroQuad/AeroQuad32/../AeroQuad/PID.h ****   const float deltaPIDTime = (currentTime - PIDparameters->previousPIDTime) / 1000000.0;
 394              		.loc 5 71 0
 395 0022 80EEA61A 		fdivs	s2, s1, s13
 396              	.LVL26:
  73:/Users/imchipwood/Dropbox/AeroQuadGit/AeroQuad/AeroQuad32/../AeroQuad/PID.h ****   PIDparameters->previousPIDTime = currentTime;  // AKA PID experiments
 397              		.loc 5 73 0
 398 0026 82ED040A 		fsts	s0, [r2, #16]
  74:/Users/imchipwood/Dropbox/AeroQuadGit/AeroQuad/AeroQuad32/../AeroQuad/PID.h ****   float error = targetPosition - currentPosition;
 399              		.loc 5 74 0
 400 002a 71EEC75A 		fsubs	s11, s3, s14
 401              	.LVL27:
 402              		.loc 5 76 0
 403 002e 31B1     		cbz	r1, .L32
  77:/Users/imchipwood/Dropbox/AeroQuadGit/AeroQuad/AeroQuad32/../AeroQuad/PID.h ****     PIDparameters->integratedError += error * deltaPIDTime;
 404              		.loc 5 77 0
 405 0030 92ED052A 		flds	s4, [r2, #20]
 406 0034 05EE812A 		fmacs	s4, s11, s2
 407 0038 82ED052A 		fsts	s4, [r2, #20]
 408 003c 01E0     		b	.L33
 409              	.L32:
  78:/Users/imchipwood/Dropbox/AeroQuadGit/AeroQuad/AeroQuad32/../AeroQuad/PID.h ****   }
  79:/Users/imchipwood/Dropbox/AeroQuadGit/AeroQuad/AeroQuad32/../AeroQuad/PID.h ****   else {
  80:/Users/imchipwood/Dropbox/AeroQuadGit/AeroQuad/AeroQuad32/../AeroQuad/PID.h ****     PIDparameters->integratedError = 0.0;
 410              		.loc 5 80 0
 411 003e 0023     		movs	r3, #0
 412 0040 5361     		str	r3, [r2, #20]	@ float
 413              	.L33:
  81:/Users/imchipwood/Dropbox/AeroQuadGit/AeroQuad/AeroQuad32/../AeroQuad/PID.h ****   }
  82:/Users/imchipwood/Dropbox/AeroQuadGit/AeroQuad/AeroQuad32/../AeroQuad/PID.h ****   PIDparameters->integratedError = constrain(PIDparameters->integratedError, -PIDparameters->windup
 414              		.loc 5 82 0
 415 0042 D2ED062A 		flds	s5, [r2, #24]
 416 0046 92ED056A 		flds	s12, [r2, #20]
 417 004a B1EE623A 		fnegs	s6, s5
 418 004e B4EEC36A 		fcmpes	s12, s6
 419 0052 F1EE10FA 		fmstat
 420 0056 08D4     		bmi	.L34
 421              		.loc 5 82 0 is_stmt 0 discriminator 2
 422 0058 B4EE626A 		fcmps	s12, s5
 423 005c F1EE10FA 		fmstat
 424 0060 CCBF     		ite	gt
 425 0062 B0EE623A 		fcpysgt	s6, s5
 426 0066 B0EE463A 		fcpysle	s6, s12
 427              	.L34:
  83:/Users/imchipwood/Dropbox/AeroQuadGit/AeroQuad/AeroQuad32/../AeroQuad/PID.h ****   float dTerm = PIDparameters->D * (currentPosition - PIDparameters->lastError) / (deltaPIDTime * 1
 428              		.loc 5 83 0 is_stmt 1 discriminator 6
 429 006a D2ED033A 		flds	s7, [r2, #12]
 430 006e D2ED024A 		flds	s9, [r2, #8]
 431 0072 37EE634A 		fsubs	s8, s14, s7
 432 0076 9FED0F0A 		flds	s0, .L38+12
 433 007a 64EE247A 		fmuls	s15, s8, s9
 434 007e 21EE005A 		fmuls	s10, s2, s0
  84:/Users/imchipwood/Dropbox/AeroQuadGit/AeroQuad/AeroQuad32/../AeroQuad/PID.h ****   PIDparameters->lastError = currentPosition;
  85:/Users/imchipwood/Dropbox/AeroQuadGit/AeroQuad/AeroQuad32/../AeroQuad/PID.h **** 
  86:/Users/imchipwood/Dropbox/AeroQuadGit/AeroQuad/AeroQuad32/../AeroQuad/PID.h ****   return (PIDparameters->P * error) + (PIDparameters->I * PIDparameters->integratedError) + dTerm;
 435              		.loc 5 86 0 discriminator 6
 436 0082 D2ED016A 		flds	s13, [r2, #4]
  83:/Users/imchipwood/Dropbox/AeroQuadGit/AeroQuad/AeroQuad32/../AeroQuad/PID.h ****   float dTerm = PIDparameters->D * (currentPosition - PIDparameters->lastError) / (deltaPIDTime * 1
 437              		.loc 5 83 0 discriminator 6
 438 0086 C7EE850A 		fdivs	s1, s15, s10
 439              	.LVL28:
  84:/Users/imchipwood/Dropbox/AeroQuadGit/AeroQuad/AeroQuad32/../AeroQuad/PID.h ****   PIDparameters->lastError = currentPosition;
 440              		.loc 5 84 0 discriminator 6
 441 008a 82ED037A 		fsts	s14, [r2, #12]
 442              		.loc 5 86 0 discriminator 6
 443 008e 92ED007A 		flds	s14, [r2, #0]
 444              	.LVL29:
 445 0092 23EE261A 		fmuls	s2, s6, s13
 446              	.LVL30:
 447 0096 05EE871A 		fmacs	s2, s11, s14
  82:/Users/imchipwood/Dropbox/AeroQuadGit/AeroQuad/AeroQuad32/../AeroQuad/PID.h ****   PIDparameters->integratedError = constrain(PIDparameters->integratedError, -PIDparameters->windup
 448              		.loc 5 82 0 discriminator 6
 449 009a 82ED053A 		fsts	s6, [r2, #20]
 450              	.LBE103:
  87:/Users/imchipwood/Dropbox/AeroQuadGit/AeroQuad/AeroQuad32/../AeroQuad/PID.h **** }
 451              		.loc 5 87 0 discriminator 6
 452 009e 71EE201A 		fadds	s3, s2, s1
 453              	.LVL31:
 454 00a2 11EE900A 		fmrs	r0, s3
 455 00a6 7047     		bx	lr
 456              	.L39:
 457              		.align	2
 458              	.L38:
 459 00a8 00000000 		.word	.LANCHOR7
 460 00ac 00000000 		.word	.LANCHOR8
 461 00b0 00247449 		.word	1232348160
 462 00b4 0000C842 		.word	1120403456
 463              		.cfi_endproc
 464              	.LFE126:
 466              		.section	.text._Z17zeroIntegralErrorv,"ax",%progbits
 467              		.align	1
 468              		.global	_Z17zeroIntegralErrorv
 469              		.thumb
 470              		.thumb_func
 472              	_Z17zeroIntegralErrorv:
 473              	.LFB127:
  88:/Users/imchipwood/Dropbox/AeroQuadGit/AeroQuad/AeroQuad32/../AeroQuad/PID.h **** 
  89:/Users/imchipwood/Dropbox/AeroQuadGit/AeroQuad/AeroQuad32/../AeroQuad/PID.h **** void zeroIntegralError() __attribute__ ((noinline));
  90:/Users/imchipwood/Dropbox/AeroQuadGit/AeroQuad/AeroQuad32/../AeroQuad/PID.h **** void zeroIntegralError() {
 474              		.loc 5 90 0
 475              		.cfi_startproc
 476              		@ args = 0, pretend = 0, frame = 0
 477              		@ frame_needed = 0, uses_anonymous_args = 0
 478              		@ link register save eliminated.
 479              	.LVL32:
 480              	.LBB104:
  91:/Users/imchipwood/Dropbox/AeroQuadGit/AeroQuad/AeroQuad32/../AeroQuad/PID.h ****   for (byte axis = 0; axis <= ATTITUDE_YAXIS_PID_IDX; axis++) {
  92:/Users/imchipwood/Dropbox/AeroQuadGit/AeroQuad/AeroQuad32/../AeroQuad/PID.h ****     PID[axis].integratedError = 0;
  93:/Users/imchipwood/Dropbox/AeroQuadGit/AeroQuad/AeroQuad32/../AeroQuad/PID.h ****     PID[axis].previousPIDTime = currentTime;
 481              		.loc 5 93 0
 482 0000 0B4B     		ldr	r3, .L41
  92:/Users/imchipwood/Dropbox/AeroQuadGit/AeroQuad/AeroQuad32/../AeroQuad/PID.h ****     PID[axis].integratedError = 0;
 483              		.loc 5 92 0
 484 0002 0C48     		ldr	r0, .L41+4
 485              		.loc 5 93 0
 486 0004 D3ED007A 		flds	s15, [r3, #0]	@ int
 487 0008 B8EE670A 		fuitos	s0, s15
  92:/Users/imchipwood/Dropbox/AeroQuadGit/AeroQuad/AeroQuad32/../AeroQuad/PID.h ****     PID[axis].integratedError = 0;
 488              		.loc 5 92 0
 489 000c 0022     		movs	r2, #0
 490 000e 4261     		str	r2, [r0, #20]	@ float
 491              		.loc 5 93 0
 492 0010 80ED040A 		fsts	s0, [r0, #16]
 493              	.LVL33:
  92:/Users/imchipwood/Dropbox/AeroQuadGit/AeroQuad/AeroQuad32/../AeroQuad/PID.h ****     PID[axis].integratedError = 0;
 494              		.loc 5 92 0
 495 0014 0263     		str	r2, [r0, #48]	@ float
 496              		.loc 5 93 0
 497 0016 80ED0B0A 		fsts	s0, [r0, #44]
 498              	.LVL34:
  92:/Users/imchipwood/Dropbox/AeroQuadGit/AeroQuad/AeroQuad32/../AeroQuad/PID.h ****     PID[axis].integratedError = 0;
 499              		.loc 5 92 0
 500 001a C264     		str	r2, [r0, #76]	@ float
 501              		.loc 5 93 0
 502 001c 80ED120A 		fsts	s0, [r0, #72]
 503              	.LVL35:
  92:/Users/imchipwood/Dropbox/AeroQuadGit/AeroQuad/AeroQuad32/../AeroQuad/PID.h ****     PID[axis].integratedError = 0;
 504              		.loc 5 92 0
 505 0020 8266     		str	r2, [r0, #104]	@ float
 506              		.loc 5 93 0
 507 0022 80ED190A 		fsts	s0, [r0, #100]
 508              	.LVL36:
  92:/Users/imchipwood/Dropbox/AeroQuadGit/AeroQuad/AeroQuad32/../AeroQuad/PID.h ****     PID[axis].integratedError = 0;
 509              		.loc 5 92 0
 510 0026 C0F88420 		str	r2, [r0, #132]	@ float
 511              		.loc 5 93 0
 512 002a 80ED200A 		fsts	s0, [r0, #128]
 513              	.LVL37:
 514 002e 7047     		bx	lr
 515              	.L42:
 516              		.align	2
 517              	.L41:
 518 0030 00000000 		.word	.LANCHOR7
 519 0034 00000000 		.word	.LANCHOR9
 520              	.LBE104:
 521              		.cfi_endproc
 522              	.LFE127:
 524              		.section	.text._Z18computeFourthOrderfP15fourthOrderData,"ax",%progbits
 525              		.align	1
 526              		.global	_Z18computeFourthOrderfP15fourthOrderData
 527              		.thumb
 528              		.thumb_func
 530              	_Z18computeFourthOrderfP15fourthOrderData:
 531              	.LFB128:
 532              		.file 6 "../Libraries/AQ_Math/FourtOrderFilter.h"
   1:../Libraries/AQ_Math/FourtOrderFilter.h **** /*
   2:../Libraries/AQ_Math/FourtOrderFilter.h ****   AeroQuad v3.0.1 - February 2012
   3:../Libraries/AQ_Math/FourtOrderFilter.h ****   www.AeroQuad.com
   4:../Libraries/AQ_Math/FourtOrderFilter.h ****   Copyright (c) 2012 Ted Carancho.  All rights reserved.
   5:../Libraries/AQ_Math/FourtOrderFilter.h ****   An Open Source Arduino based multicopter.
   6:../Libraries/AQ_Math/FourtOrderFilter.h ****  
   7:../Libraries/AQ_Math/FourtOrderFilter.h ****   This program is free software: you can redistribute it and/or modify 
   8:../Libraries/AQ_Math/FourtOrderFilter.h ****   it under the terms of the GNU General Public License as published by 
   9:../Libraries/AQ_Math/FourtOrderFilter.h ****   the Free Software Foundation, either version 3 of the License, or 
  10:../Libraries/AQ_Math/FourtOrderFilter.h ****   (at your option) any later version. 
  11:../Libraries/AQ_Math/FourtOrderFilter.h **** 
  12:../Libraries/AQ_Math/FourtOrderFilter.h ****   This program is distributed in the hope that it will be useful, 
  13:../Libraries/AQ_Math/FourtOrderFilter.h ****   but WITHOUT ANY WARRANTY; without even the implied warranty of 
  14:../Libraries/AQ_Math/FourtOrderFilter.h ****   MERCHANTABILITY or FITNESS FOR A PARTICULAR PURPOSE. See the 
  15:../Libraries/AQ_Math/FourtOrderFilter.h ****   GNU General Public License for more details. 
  16:../Libraries/AQ_Math/FourtOrderFilter.h **** 
  17:../Libraries/AQ_Math/FourtOrderFilter.h ****   You should have received a copy of the GNU General Public License 
  18:../Libraries/AQ_Math/FourtOrderFilter.h ****   along with this program. If not, see <http://www.gnu.org/licenses/>. 
  19:../Libraries/AQ_Math/FourtOrderFilter.h **** */
  20:../Libraries/AQ_Math/FourtOrderFilter.h **** 
  21:../Libraries/AQ_Math/FourtOrderFilter.h **** #ifndef _AQ_FOURTH_ORDER_FILTER_H_
  22:../Libraries/AQ_Math/FourtOrderFilter.h **** #define _AQ_FOURTH_ORDER_FILTER_H_
  23:../Libraries/AQ_Math/FourtOrderFilter.h **** 
  24:../Libraries/AQ_Math/FourtOrderFilter.h **** ////////////////////////////////////////////////////////////////////////////////
  25:../Libraries/AQ_Math/FourtOrderFilter.h **** //
  26:../Libraries/AQ_Math/FourtOrderFilter.h **** //
  27:../Libraries/AQ_Math/FourtOrderFilter.h **** ////////////////////////////////////////////////////////////////////////////////
  28:../Libraries/AQ_Math/FourtOrderFilter.h **** 
  29:../Libraries/AQ_Math/FourtOrderFilter.h **** #include <GlobalDefined.h>
  30:../Libraries/AQ_Math/FourtOrderFilter.h **** 
  31:../Libraries/AQ_Math/FourtOrderFilter.h **** 
  32:../Libraries/AQ_Math/FourtOrderFilter.h **** struct fourthOrderData
  33:../Libraries/AQ_Math/FourtOrderFilter.h **** {
  34:../Libraries/AQ_Math/FourtOrderFilter.h ****   float  inputTm1,  inputTm2,  inputTm3,  inputTm4;
  35:../Libraries/AQ_Math/FourtOrderFilter.h ****   float outputTm1, outputTm2, outputTm3, outputTm4;
  36:../Libraries/AQ_Math/FourtOrderFilter.h **** } fourthOrder[4];
  37:../Libraries/AQ_Math/FourtOrderFilter.h **** 
  38:../Libraries/AQ_Math/FourtOrderFilter.h **** float computeFourthOrder(float currentInput, struct fourthOrderData *filterParameters)
  39:../Libraries/AQ_Math/FourtOrderFilter.h **** {
 533              		.loc 6 39 0
 534              		.cfi_startproc
 535              		@ args = 0, pretend = 0, frame = 0
 536              		@ frame_needed = 0, uses_anonymous_args = 0
 537              		@ link register save eliminated.
 538              	.LVL38:
 539              	.LBB105:
  40:../Libraries/AQ_Math/FourtOrderFilter.h ****   // cheby2(4,60,12.5/50)
  41:../Libraries/AQ_Math/FourtOrderFilter.h ****   #define _b0  0.001893594048567
  42:../Libraries/AQ_Math/FourtOrderFilter.h ****   #define _b1 -0.002220262954039
  43:../Libraries/AQ_Math/FourtOrderFilter.h ****   #define _b2  0.003389066536478
  44:../Libraries/AQ_Math/FourtOrderFilter.h ****   #define _b3 -0.002220262954039
  45:../Libraries/AQ_Math/FourtOrderFilter.h ****   #define _b4  0.001893594048567
  46:../Libraries/AQ_Math/FourtOrderFilter.h ****   
  47:../Libraries/AQ_Math/FourtOrderFilter.h ****   #define _a1 -3.362256889209355
  48:../Libraries/AQ_Math/FourtOrderFilter.h ****   #define _a2  4.282608240117919
  49:../Libraries/AQ_Math/FourtOrderFilter.h ****   #define _a3 -2.444765517272841
  50:../Libraries/AQ_Math/FourtOrderFilter.h ****   #define _a4  0.527149895089809
  51:../Libraries/AQ_Math/FourtOrderFilter.h ****   
  52:../Libraries/AQ_Math/FourtOrderFilter.h ****   float output;
  53:../Libraries/AQ_Math/FourtOrderFilter.h ****   
  54:../Libraries/AQ_Math/FourtOrderFilter.h ****   output = _b0 * currentInput                + 
  55:../Libraries/AQ_Math/FourtOrderFilter.h ****            _b1 * filterParameters->inputTm1  + 
  56:../Libraries/AQ_Math/FourtOrderFilter.h ****            _b2 * filterParameters->inputTm2  +
  57:../Libraries/AQ_Math/FourtOrderFilter.h ****            _b3 * filterParameters->inputTm3  +
  58:../Libraries/AQ_Math/FourtOrderFilter.h ****            _b4 * filterParameters->inputTm4  -
  59:../Libraries/AQ_Math/FourtOrderFilter.h ****            _a1 * filterParameters->outputTm1 -
  60:../Libraries/AQ_Math/FourtOrderFilter.h ****            _a2 * filterParameters->outputTm2 -
  61:../Libraries/AQ_Math/FourtOrderFilter.h ****            _a3 * filterParameters->outputTm3 -
  62:../Libraries/AQ_Math/FourtOrderFilter.h ****            _a4 * filterParameters->outputTm4;
 540              		.loc 6 62 0
 541 0000 91ED005A 		flds	s10, [r1, #0]
 542 0004 9FED203A 		flds	s6, .L44
 543              	.LBE105:
  39:../Libraries/AQ_Math/FourtOrderFilter.h **** {
 544              		.loc 6 39 0
 545 0008 05EE900A 		fmsr	s11, r0
 546              	.LBB106:
 547              		.loc 6 62 0
 548 000c DFED1F3A 		flds	s7, .L44+4
 549 0010 65EE037A 		fmuls	s15, s10, s6
 550 0014 45EEA37A 		fmacs	s15, s11, s7
 551 0018 D1ED014A 		flds	s9, [r1, #4]
 552 001c DFED1C2A 		flds	s5, .L44+8
 553 0020 44EEA27A 		fmacs	s15, s9, s5
 554 0024 91ED024A 		flds	s8, [r1, #8]
 555 0028 44EE037A 		fmacs	s15, s8, s6
 556 002c 91ED030A 		flds	s0, [r1, #12]
 557 0030 40EE237A 		fmacs	s15, s0, s7
 558 0034 91ED047A 		flds	s14, [r1, #16]
 559 0038 DFED160A 		flds	s1, .L44+12
 560 003c 47EE207A 		fmacs	s15, s14, s1
 561 0040 D1ED056A 		flds	s13, [r1, #20]
 562 0044 9FED141A 		flds	s2, .L44+16
 563 0048 46EEC17A 		fnmacs	s15, s13, s2
 564 004c 91ED066A 		flds	s12, [r1, #24]
 565 0050 DFED121A 		flds	s3, .L44+20
 566 0054 46EE217A 		fmacs	s15, s12, s3
 567 0058 91ED072A 		flds	s4, [r1, #28]
 568 005c DFED103A 		flds	s7, .L44+24
 569 0060 42EE637A 		fnmacs	s15, s4, s7
 570              	.LVL39:
  63:../Libraries/AQ_Math/FourtOrderFilter.h **** 
  64:../Libraries/AQ_Math/FourtOrderFilter.h ****   filterParameters->inputTm4 = filterParameters->inputTm3;
  65:../Libraries/AQ_Math/FourtOrderFilter.h ****   filterParameters->inputTm3 = filterParameters->inputTm2;
  66:../Libraries/AQ_Math/FourtOrderFilter.h ****   filterParameters->inputTm2 = filterParameters->inputTm1;
  67:../Libraries/AQ_Math/FourtOrderFilter.h ****   filterParameters->inputTm1 = currentInput;
 571              		.loc 6 67 0
 572 0064 0860     		str	r0, [r1, #0]	@ float
  64:../Libraries/AQ_Math/FourtOrderFilter.h ****   filterParameters->inputTm4 = filterParameters->inputTm3;
 573              		.loc 6 64 0
 574 0066 81ED034A 		fsts	s8, [r1, #12]
  65:../Libraries/AQ_Math/FourtOrderFilter.h ****   filterParameters->inputTm3 = filterParameters->inputTm2;
 575              		.loc 6 65 0
 576 006a C1ED024A 		fsts	s9, [r1, #8]
  66:../Libraries/AQ_Math/FourtOrderFilter.h ****   filterParameters->inputTm2 = filterParameters->inputTm1;
 577              		.loc 6 66 0
 578 006e 81ED015A 		fsts	s10, [r1, #4]
  68:../Libraries/AQ_Math/FourtOrderFilter.h ****   
  69:../Libraries/AQ_Math/FourtOrderFilter.h ****   filterParameters->outputTm4 = filterParameters->outputTm3;
 579              		.loc 6 69 0
 580 0072 81ED076A 		fsts	s12, [r1, #28]
  70:../Libraries/AQ_Math/FourtOrderFilter.h ****   filterParameters->outputTm3 = filterParameters->outputTm2;
 581              		.loc 6 70 0
 582 0076 C1ED066A 		fsts	s13, [r1, #24]
  71:../Libraries/AQ_Math/FourtOrderFilter.h ****   filterParameters->outputTm2 = filterParameters->outputTm1;
 583              		.loc 6 71 0
 584 007a 81ED057A 		fsts	s14, [r1, #20]
  72:../Libraries/AQ_Math/FourtOrderFilter.h ****   filterParameters->outputTm1 = output;
 585              		.loc 6 72 0
 586 007e C1ED047A 		fsts	s15, [r1, #16]
 587              	.LBE106:
  73:../Libraries/AQ_Math/FourtOrderFilter.h ****     
  74:../Libraries/AQ_Math/FourtOrderFilter.h ****   return output;
  75:../Libraries/AQ_Math/FourtOrderFilter.h **** }
 588              		.loc 6 75 0
 589 0082 17EE900A 		fmrs	r0, s15
 590              	.LVL40:
 591 0086 7047     		bx	lr
 592              	.L45:
 593              		.align	2
 594              	.L44:
 595 0088 D58111BB 		.word	3138486741
 596 008c 7932F83A 		.word	989344377
 597 0090 1A1B5E3B 		.word	996023066
 598 0094 382F5740 		.word	1079455544
 599 0098 200B8940 		.word	1082723104
 600 009c 0A771C40 		.word	1075607306
 601 00a0 4CF3063F 		.word	1057420108
 602              		.cfi_endproc
 603              	.LFE128:
 605              		.section	.text._Z16setupFourthOrderv,"ax",%progbits
 606              		.align	1
 607              		.global	_Z16setupFourthOrderv
 608              		.thumb
 609              		.thumb_func
 611              	_Z16setupFourthOrderv:
 612              	.LFB129:
  76:../Libraries/AQ_Math/FourtOrderFilter.h **** 
  77:../Libraries/AQ_Math/FourtOrderFilter.h **** void setupFourthOrder(void)
  78:../Libraries/AQ_Math/FourtOrderFilter.h **** {
 613              		.loc 6 78 0
 614              		.cfi_startproc
 615              		@ args = 0, pretend = 0, frame = 0
 616              		@ frame_needed = 0, uses_anonymous_args = 0
 617              		@ link register save eliminated.
  79:../Libraries/AQ_Math/FourtOrderFilter.h ****   fourthOrder[XAXIS].inputTm1 = 0.0;
 618              		.loc 6 79 0
 619 0000 0D4B     		ldr	r3, .L47
  80:../Libraries/AQ_Math/FourtOrderFilter.h ****   fourthOrder[XAXIS].inputTm2 = 0.0;
  81:../Libraries/AQ_Math/FourtOrderFilter.h ****   fourthOrder[XAXIS].inputTm3 = 0.0;
  82:../Libraries/AQ_Math/FourtOrderFilter.h ****   fourthOrder[XAXIS].inputTm4 = 0.0;
  83:../Libraries/AQ_Math/FourtOrderFilter.h ****   
  84:../Libraries/AQ_Math/FourtOrderFilter.h ****   fourthOrder[XAXIS].outputTm1 = 0.0;
  85:../Libraries/AQ_Math/FourtOrderFilter.h ****   fourthOrder[XAXIS].outputTm2 = 0.0;
  86:../Libraries/AQ_Math/FourtOrderFilter.h ****   fourthOrder[XAXIS].outputTm3 = 0.0;
  87:../Libraries/AQ_Math/FourtOrderFilter.h ****   fourthOrder[XAXIS].outputTm4 = 0.0;
  88:../Libraries/AQ_Math/FourtOrderFilter.h ****   
  89:../Libraries/AQ_Math/FourtOrderFilter.h ****   //////////
  90:../Libraries/AQ_Math/FourtOrderFilter.h ****   fourthOrder[YAXIS].inputTm1 = 0.0;
  91:../Libraries/AQ_Math/FourtOrderFilter.h ****   fourthOrder[YAXIS].inputTm2 = 0.0;
  92:../Libraries/AQ_Math/FourtOrderFilter.h ****   fourthOrder[YAXIS].inputTm3 = 0.0;
  93:../Libraries/AQ_Math/FourtOrderFilter.h ****   fourthOrder[YAXIS].inputTm4 = 0.0;
  94:../Libraries/AQ_Math/FourtOrderFilter.h ****   
  95:../Libraries/AQ_Math/FourtOrderFilter.h ****   fourthOrder[YAXIS].outputTm1 = 0.0;
  96:../Libraries/AQ_Math/FourtOrderFilter.h ****   fourthOrder[YAXIS].outputTm2 = 0.0;
  97:../Libraries/AQ_Math/FourtOrderFilter.h ****   fourthOrder[YAXIS].outputTm3 = 0.0;
  98:../Libraries/AQ_Math/FourtOrderFilter.h ****   fourthOrder[YAXIS].outputTm4 = 0.0;
  99:../Libraries/AQ_Math/FourtOrderFilter.h ****   
 100:../Libraries/AQ_Math/FourtOrderFilter.h ****   //////////
 101:../Libraries/AQ_Math/FourtOrderFilter.h ****   fourthOrder[ZAXIS].inputTm1 = -9.8065;
 620              		.loc 6 101 0
 621 0002 0E48     		ldr	r0, .L47+4
  79:../Libraries/AQ_Math/FourtOrderFilter.h ****   fourthOrder[XAXIS].inputTm1 = 0.0;
 622              		.loc 6 79 0
 623 0004 0022     		movs	r2, #0
 624 0006 1A60     		str	r2, [r3, #0]	@ float
  80:../Libraries/AQ_Math/FourtOrderFilter.h ****   fourthOrder[XAXIS].inputTm2 = 0.0;
 625              		.loc 6 80 0
 626 0008 5A60     		str	r2, [r3, #4]	@ float
  81:../Libraries/AQ_Math/FourtOrderFilter.h ****   fourthOrder[XAXIS].inputTm3 = 0.0;
 627              		.loc 6 81 0
 628 000a 9A60     		str	r2, [r3, #8]	@ float
  82:../Libraries/AQ_Math/FourtOrderFilter.h ****   fourthOrder[XAXIS].inputTm4 = 0.0;
 629              		.loc 6 82 0
 630 000c DA60     		str	r2, [r3, #12]	@ float
  84:../Libraries/AQ_Math/FourtOrderFilter.h ****   fourthOrder[XAXIS].outputTm1 = 0.0;
 631              		.loc 6 84 0
 632 000e 1A61     		str	r2, [r3, #16]	@ float
  85:../Libraries/AQ_Math/FourtOrderFilter.h ****   fourthOrder[XAXIS].outputTm2 = 0.0;
 633              		.loc 6 85 0
 634 0010 5A61     		str	r2, [r3, #20]	@ float
  86:../Libraries/AQ_Math/FourtOrderFilter.h ****   fourthOrder[XAXIS].outputTm3 = 0.0;
 635              		.loc 6 86 0
 636 0012 9A61     		str	r2, [r3, #24]	@ float
  87:../Libraries/AQ_Math/FourtOrderFilter.h ****   fourthOrder[XAXIS].outputTm4 = 0.0;
 637              		.loc 6 87 0
 638 0014 DA61     		str	r2, [r3, #28]	@ float
  90:../Libraries/AQ_Math/FourtOrderFilter.h ****   fourthOrder[YAXIS].inputTm1 = 0.0;
 639              		.loc 6 90 0
 640 0016 1A62     		str	r2, [r3, #32]	@ float
  91:../Libraries/AQ_Math/FourtOrderFilter.h ****   fourthOrder[YAXIS].inputTm2 = 0.0;
 641              		.loc 6 91 0
 642 0018 5A62     		str	r2, [r3, #36]	@ float
  92:../Libraries/AQ_Math/FourtOrderFilter.h ****   fourthOrder[YAXIS].inputTm3 = 0.0;
 643              		.loc 6 92 0
 644 001a 9A62     		str	r2, [r3, #40]	@ float
  93:../Libraries/AQ_Math/FourtOrderFilter.h ****   fourthOrder[YAXIS].inputTm4 = 0.0;
 645              		.loc 6 93 0
 646 001c DA62     		str	r2, [r3, #44]	@ float
  95:../Libraries/AQ_Math/FourtOrderFilter.h ****   fourthOrder[YAXIS].outputTm1 = 0.0;
 647              		.loc 6 95 0
 648 001e 1A63     		str	r2, [r3, #48]	@ float
  96:../Libraries/AQ_Math/FourtOrderFilter.h ****   fourthOrder[YAXIS].outputTm2 = 0.0;
 649              		.loc 6 96 0
 650 0020 5A63     		str	r2, [r3, #52]	@ float
  97:../Libraries/AQ_Math/FourtOrderFilter.h ****   fourthOrder[YAXIS].outputTm3 = 0.0;
 651              		.loc 6 97 0
 652 0022 9A63     		str	r2, [r3, #56]	@ float
  98:../Libraries/AQ_Math/FourtOrderFilter.h ****   fourthOrder[YAXIS].outputTm4 = 0.0;
 653              		.loc 6 98 0
 654 0024 DA63     		str	r2, [r3, #60]	@ float
 655              		.loc 6 101 0
 656 0026 1864     		str	r0, [r3, #64]	@ float
 102:../Libraries/AQ_Math/FourtOrderFilter.h ****   fourthOrder[ZAXIS].inputTm2 = -9.8065;
 657              		.loc 6 102 0
 658 0028 5864     		str	r0, [r3, #68]	@ float
 103:../Libraries/AQ_Math/FourtOrderFilter.h ****   fourthOrder[ZAXIS].inputTm3 = -9.8065;
 659              		.loc 6 103 0
 660 002a 9864     		str	r0, [r3, #72]	@ float
 104:../Libraries/AQ_Math/FourtOrderFilter.h ****   fourthOrder[ZAXIS].inputTm4 = -9.8065;
 661              		.loc 6 104 0
 662 002c D864     		str	r0, [r3, #76]	@ float
 105:../Libraries/AQ_Math/FourtOrderFilter.h ****   
 106:../Libraries/AQ_Math/FourtOrderFilter.h ****   fourthOrder[ZAXIS].outputTm1 = -9.8065;
 663              		.loc 6 106 0
 664 002e 1865     		str	r0, [r3, #80]	@ float
 107:../Libraries/AQ_Math/FourtOrderFilter.h ****   fourthOrder[ZAXIS].outputTm2 = -9.8065;
 665              		.loc 6 107 0
 666 0030 5865     		str	r0, [r3, #84]	@ float
 108:../Libraries/AQ_Math/FourtOrderFilter.h ****   fourthOrder[ZAXIS].outputTm3 = -9.8065;
 667              		.loc 6 108 0
 668 0032 9865     		str	r0, [r3, #88]	@ float
 109:../Libraries/AQ_Math/FourtOrderFilter.h ****   fourthOrder[ZAXIS].outputTm4 = -9.8065;
 669              		.loc 6 109 0
 670 0034 D865     		str	r0, [r3, #92]	@ float
 671 0036 7047     		bx	lr
 672              	.L48:
 673              		.align	2
 674              	.L47:
 675 0038 00000000 		.word	.LANCHOR10
 676 003c 6DE71CC1 		.word	-1055070355
 677              		.cfi_endproc
 678              	.LFE129:
 680              		.section	.text._ZN14HardwareSPIExt4ReadEiPhi,"axG",%progbits,_ZN14HardwareSPIExt4ReadEiPhi,comdat
 681              		.align	1
 682              		.weak	_ZN14HardwareSPIExt4ReadEiPhi
 683              		.thumb
 684              		.thumb_func
 686              	_ZN14HardwareSPIExt4ReadEiPhi:
 687              	.LFB136:
 688              		.file 7 "../Libraries/AQ_SPI/HardwareSPIExt.h"
   1:../Libraries/AQ_SPI/HardwareSPIExt.h **** #ifndef _AEROQUAD_SPI_HARDWARESPIEXT_H_
   2:../Libraries/AQ_SPI/HardwareSPIExt.h **** #define _AEROQUAD_SPI_HARDWARESPIEXT_H_
   3:../Libraries/AQ_SPI/HardwareSPIExt.h **** 
   4:../Libraries/AQ_SPI/HardwareSPIExt.h **** #if defined(AeroQuadSTM32)
   5:../Libraries/AQ_SPI/HardwareSPIExt.h **** 
   6:../Libraries/AQ_SPI/HardwareSPIExt.h **** // helper class to extend the maple HardwareSPI class
   7:../Libraries/AQ_SPI/HardwareSPIExt.h **** // used by the MPU6000 library
   8:../Libraries/AQ_SPI/HardwareSPIExt.h **** 
   9:../Libraries/AQ_SPI/HardwareSPIExt.h **** #include <HardwareSPI.h>
  10:../Libraries/AQ_SPI/HardwareSPIExt.h **** 
  11:../Libraries/AQ_SPI/HardwareSPIExt.h **** #define SPI_READ_FLAG  0x80
  12:../Libraries/AQ_SPI/HardwareSPIExt.h **** #define SPI_MULTI_FLAG 0x40
  13:../Libraries/AQ_SPI/HardwareSPIExt.h **** #define SetPin digitalWrite
  14:../Libraries/AQ_SPI/HardwareSPIExt.h **** 
  15:../Libraries/AQ_SPI/HardwareSPIExt.h **** class HardwareSPIExt : public HardwareSPI {
  16:../Libraries/AQ_SPI/HardwareSPIExt.h **** public:
  17:../Libraries/AQ_SPI/HardwareSPIExt.h **** 	HardwareSPIExt(uint32 spiPortNumber) : HardwareSPI(spiPortNumber) {
  18:../Libraries/AQ_SPI/HardwareSPIExt.h **** 		SetCS(nssPin());
  19:../Libraries/AQ_SPI/HardwareSPIExt.h **** 		fSpiMultiFlag = 0;
  20:../Libraries/AQ_SPI/HardwareSPIExt.h **** 	}
  21:../Libraries/AQ_SPI/HardwareSPIExt.h **** 
  22:../Libraries/AQ_SPI/HardwareSPIExt.h **** 	void SetCS(int aCS)
  23:../Libraries/AQ_SPI/HardwareSPIExt.h **** 	{
  24:../Libraries/AQ_SPI/HardwareSPIExt.h **** 		fCS = aCS;
  25:../Libraries/AQ_SPI/HardwareSPIExt.h **** 	}
  26:../Libraries/AQ_SPI/HardwareSPIExt.h **** 
  27:../Libraries/AQ_SPI/HardwareSPIExt.h **** 	void SetMultiFlag() {
  28:../Libraries/AQ_SPI/HardwareSPIExt.h **** 		fSpiMultiFlag = SPI_MULTI_FLAG;
  29:../Libraries/AQ_SPI/HardwareSPIExt.h **** 	}
  30:../Libraries/AQ_SPI/HardwareSPIExt.h **** 
  31:../Libraries/AQ_SPI/HardwareSPIExt.h **** 	void begin(SPIFrequency frequency, uint32 bitOrder, uint32 mode)
  32:../Libraries/AQ_SPI/HardwareSPIExt.h **** 	{
  33:../Libraries/AQ_SPI/HardwareSPIExt.h **** 		SetPin(fCS, 1);
  34:../Libraries/AQ_SPI/HardwareSPIExt.h **** 		pinMode(fCS, OUTPUT);
  35:../Libraries/AQ_SPI/HardwareSPIExt.h **** 
  36:../Libraries/AQ_SPI/HardwareSPIExt.h **** 		HardwareSPI::begin(frequency, bitOrder, mode);
  37:../Libraries/AQ_SPI/HardwareSPIExt.h **** 	}
  38:../Libraries/AQ_SPI/HardwareSPIExt.h **** 
  39:../Libraries/AQ_SPI/HardwareSPIExt.h **** 	void Read(int addr, unsigned char *data, int dataLen)
 689              		.loc 7 39 0
 690              		.cfi_startproc
 691              		@ args = 0, pretend = 0, frame = 0
 692              		@ frame_needed = 0, uses_anonymous_args = 0
 693              	.LVL41:
 694 0000 F8B5     		push	{r3, r4, r5, r6, r7, lr}
 695              	.LCFI0:
 696              		.cfi_def_cfa_offset 24
 697              		.cfi_offset 3, -24
 698              		.cfi_offset 4, -20
 699              		.cfi_offset 5, -16
 700              		.cfi_offset 6, -12
 701              		.cfi_offset 7, -8
 702              		.cfi_offset 14, -4
 703              		.loc 7 39 0
 704 0002 0446     		mov	r4, r0
 705 0004 0D46     		mov	r5, r1
  40:../Libraries/AQ_SPI/HardwareSPIExt.h **** 	{
  41:../Libraries/AQ_SPI/HardwareSPIExt.h **** 		SetPin(fCS, 0);
 706              		.loc 7 41 0
 707 0006 0079     		ldrb	r0, [r0, #4]	@ zero_extendqisi2
 708              	.LVL42:
 709 0008 0021     		movs	r1, #0
 710              	.LVL43:
  39:../Libraries/AQ_SPI/HardwareSPIExt.h **** 	void Read(int addr, unsigned char *data, int dataLen)
 711              		.loc 7 39 0
 712 000a 1646     		mov	r6, r2
 713 000c 1F46     		mov	r7, r3
 714              		.loc 7 41 0
 715 000e FFF7FEFF 		bl	_Z12digitalWritehh
 716              	.LVL44:
  42:../Libraries/AQ_SPI/HardwareSPIExt.h **** 		transfer(addr | SPI_READ_FLAG | fSpiMultiFlag);
 717              		.loc 7 42 0
 718 0012 237A     		ldrb	r3, [r4, #8]	@ zero_extendqisi2
 719 0014 65F07F00 		orn	r0, r5, #127
 720 0018 40EA0301 		orr	r1, r0, r3
 721 001c C9B2     		uxtb	r1, r1
 722 001e 2046     		mov	r0, r4
 723 0020 FFF7FEFF 		bl	_ZN11HardwareSPI8transferEh
 724              	.LVL45:
  43:../Libraries/AQ_SPI/HardwareSPIExt.h **** 		while(dataLen-- > 0) {
 725              		.loc 7 43 0
 726 0024 3546     		mov	r5, r6
 727              	.LVL46:
 728              	.L50:
  39:../Libraries/AQ_SPI/HardwareSPIExt.h **** 	void Read(int addr, unsigned char *data, int dataLen)
 729              		.loc 7 39 0 discriminator 1
 730 0026 F219     		adds	r2, r6, r7
 731 0028 501B     		subs	r0, r2, r5
 732              		.loc 7 43 0 discriminator 1
 733 002a 0028     		cmp	r0, #0
 734 002c 06DD     		ble	.L52
 735              	.L51:
  44:../Libraries/AQ_SPI/HardwareSPIExt.h **** 			*data++ = transfer(0);
 736              		.loc 7 44 0
 737 002e 2046     		mov	r0, r4
 738 0030 0021     		movs	r1, #0
 739 0032 FFF7FEFF 		bl	_ZN11HardwareSPI8transferEh
 740              	.LVL47:
 741 0036 05F8010B 		strb	r0, [r5], #1
 742              	.LVL48:
 743 003a F4E7     		b	.L50
 744              	.L52:
  45:../Libraries/AQ_SPI/HardwareSPIExt.h **** 		}
  46:../Libraries/AQ_SPI/HardwareSPIExt.h **** 		SetPin(fCS, 1);
 745              		.loc 7 46 0
 746 003c 2079     		ldrb	r0, [r4, #4]	@ zero_extendqisi2
 747 003e 0121     		movs	r1, #1
  47:../Libraries/AQ_SPI/HardwareSPIExt.h **** 	}
 748              		.loc 7 47 0
 749 0040 BDE8F840 		pop	{r3, r4, r5, r6, r7, lr}
  46:../Libraries/AQ_SPI/HardwareSPIExt.h **** 		SetPin(fCS, 1);
 750              		.loc 7 46 0
 751 0044 FFF7FEBF 		b	_Z12digitalWritehh
 752              	.LVL49:
 753              		.cfi_endproc
 754              	.LFE136:
 756              		.section	.text._Z19MPU6000_SpiLowSpeedv,"ax",%progbits
 757              		.align	1
 758              		.global	_Z19MPU6000_SpiLowSpeedv
 759              		.thumb
 760              		.thumb_func
 762              	_Z19MPU6000_SpiLowSpeedv:
 763              	.LFB140:
 764              		.file 8 "../Libraries/AQ_Platform_MPU6000/Platform_MPU6000.h"
   1:../Libraries/AQ_Platform_MPU6000/Platform_MPU6000.h **** /*
   2:../Libraries/AQ_Platform_MPU6000/Platform_MPU6000.h ****   AeroQuad v3.0 - May 2011
   3:../Libraries/AQ_Platform_MPU6000/Platform_MPU6000.h ****   www.AeroQuad.com
   4:../Libraries/AQ_Platform_MPU6000/Platform_MPU6000.h ****   Copyright (c) 2011 Ted Carancho.  All rights reserved.
   5:../Libraries/AQ_Platform_MPU6000/Platform_MPU6000.h ****   An Open Source Arduino based multicopter.
   6:../Libraries/AQ_Platform_MPU6000/Platform_MPU6000.h **** 
   7:../Libraries/AQ_Platform_MPU6000/Platform_MPU6000.h ****   This program is free software: you can redistribute it and/or modify
   8:../Libraries/AQ_Platform_MPU6000/Platform_MPU6000.h ****   it under the terms of the GNU General Public License as published by
   9:../Libraries/AQ_Platform_MPU6000/Platform_MPU6000.h ****   the Free Software Foundation, either version 3 of the License, or
  10:../Libraries/AQ_Platform_MPU6000/Platform_MPU6000.h ****   (at your option) any later version.
  11:../Libraries/AQ_Platform_MPU6000/Platform_MPU6000.h **** 
  12:../Libraries/AQ_Platform_MPU6000/Platform_MPU6000.h ****   This program is distributed in the hope that it will be useful,
  13:../Libraries/AQ_Platform_MPU6000/Platform_MPU6000.h ****   but WITHOUT ANY WARRANTY; without even the implied warranty of
  14:../Libraries/AQ_Platform_MPU6000/Platform_MPU6000.h ****   MERCHANTABILITY or FITNESS FOR A PARTICULAR PURPOSE. See the
  15:../Libraries/AQ_Platform_MPU6000/Platform_MPU6000.h ****   GNU General Public License for more details.
  16:../Libraries/AQ_Platform_MPU6000/Platform_MPU6000.h **** 
  17:../Libraries/AQ_Platform_MPU6000/Platform_MPU6000.h ****   You should have received a copy of the GNU General Public License
  18:../Libraries/AQ_Platform_MPU6000/Platform_MPU6000.h ****   along with this program. If not, see <http://www.gnu.org/licenses/>.
  19:../Libraries/AQ_Platform_MPU6000/Platform_MPU6000.h **** */
  20:../Libraries/AQ_Platform_MPU6000/Platform_MPU6000.h **** 
  21:../Libraries/AQ_Platform_MPU6000/Platform_MPU6000.h **** // parts of the init sequence were taken from AP_InertialSensor_MPU6000.h
  22:../Libraries/AQ_Platform_MPU6000/Platform_MPU6000.h **** 
  23:../Libraries/AQ_Platform_MPU6000/Platform_MPU6000.h **** #ifndef _AEROQUAD_PLATFORM_MPU6000_H_
  24:../Libraries/AQ_Platform_MPU6000/Platform_MPU6000.h **** #define _AEROQUAD_PLATFORM_MPU6000_H_
  25:../Libraries/AQ_Platform_MPU6000/Platform_MPU6000.h **** 
  26:../Libraries/AQ_Platform_MPU6000/Platform_MPU6000.h **** // I2C support for MPU6000/6050 is not tested yet
  27:../Libraries/AQ_Platform_MPU6000/Platform_MPU6000.h **** //#define MPU6000_I2C
  28:../Libraries/AQ_Platform_MPU6000/Platform_MPU6000.h **** 
  29:../Libraries/AQ_Platform_MPU6000/Platform_MPU6000.h **** #include "Arduino.h"
  30:../Libraries/AQ_Platform_MPU6000/Platform_MPU6000.h **** #include <SensorsStatus.h>
  31:../Libraries/AQ_Platform_MPU6000/Platform_MPU6000.h **** 
  32:../Libraries/AQ_Platform_MPU6000/Platform_MPU6000.h **** //#define MPU6000_I2C	// insert this define before #include <Platform_MPU6000.h> when you use a I2C
  33:../Libraries/AQ_Platform_MPU6000/Platform_MPU6000.h **** 
  34:../Libraries/AQ_Platform_MPU6000/Platform_MPU6000.h **** // MPU 6000 registers
  35:../Libraries/AQ_Platform_MPU6000/Platform_MPU6000.h **** #define MPUREG_WHOAMI			0x75
  36:../Libraries/AQ_Platform_MPU6000/Platform_MPU6000.h **** #define MPUREG_SMPLRT_DIV		0x19
  37:../Libraries/AQ_Platform_MPU6000/Platform_MPU6000.h **** #define MPUREG_CONFIG			0x1A
  38:../Libraries/AQ_Platform_MPU6000/Platform_MPU6000.h **** #define MPUREG_GYRO_CONFIG		0x1B
  39:../Libraries/AQ_Platform_MPU6000/Platform_MPU6000.h **** #define MPUREG_ACCEL_CONFIG		0x1C
  40:../Libraries/AQ_Platform_MPU6000/Platform_MPU6000.h **** #define MPUREG_FIFO_EN			0x23
  41:../Libraries/AQ_Platform_MPU6000/Platform_MPU6000.h **** #define MPUREG_INT_PIN_CFG		0x37
  42:../Libraries/AQ_Platform_MPU6000/Platform_MPU6000.h **** #define MPUREG_INT_ENABLE		0x38
  43:../Libraries/AQ_Platform_MPU6000/Platform_MPU6000.h **** #define MPUREG_INT_STATUS		0x3A
  44:../Libraries/AQ_Platform_MPU6000/Platform_MPU6000.h **** #define MPUREG_ACCEL_XOUT_H		0x3B
  45:../Libraries/AQ_Platform_MPU6000/Platform_MPU6000.h **** #define MPUREG_ACCEL_XOUT_L		0x3C
  46:../Libraries/AQ_Platform_MPU6000/Platform_MPU6000.h **** #define MPUREG_ACCEL_YOUT_H		0x3D
  47:../Libraries/AQ_Platform_MPU6000/Platform_MPU6000.h **** #define MPUREG_ACCEL_YOUT_L		0x3E
  48:../Libraries/AQ_Platform_MPU6000/Platform_MPU6000.h **** #define MPUREG_ACCEL_ZOUT_H		0x3F
  49:../Libraries/AQ_Platform_MPU6000/Platform_MPU6000.h **** #define MPUREG_ACCEL_ZOUT_L		0x40
  50:../Libraries/AQ_Platform_MPU6000/Platform_MPU6000.h **** #define MPUREG_TEMP_OUT_H		0x41
  51:../Libraries/AQ_Platform_MPU6000/Platform_MPU6000.h **** #define MPUREG_TEMP_OUT_L		0x42
  52:../Libraries/AQ_Platform_MPU6000/Platform_MPU6000.h **** #define MPUREG_GYRO_XOUT_H		0x43
  53:../Libraries/AQ_Platform_MPU6000/Platform_MPU6000.h **** #define MPUREG_GYRO_XOUT_L		0x44
  54:../Libraries/AQ_Platform_MPU6000/Platform_MPU6000.h **** #define MPUREG_GYRO_YOUT_H		0x45
  55:../Libraries/AQ_Platform_MPU6000/Platform_MPU6000.h **** #define MPUREG_GYRO_YOUT_L		0x46
  56:../Libraries/AQ_Platform_MPU6000/Platform_MPU6000.h **** #define MPUREG_GYRO_ZOUT_H		0x47
  57:../Libraries/AQ_Platform_MPU6000/Platform_MPU6000.h **** #define MPUREG_GYRO_ZOUT_L		0x48
  58:../Libraries/AQ_Platform_MPU6000/Platform_MPU6000.h **** #define MPUREG_USER_CTRL		0x6A
  59:../Libraries/AQ_Platform_MPU6000/Platform_MPU6000.h **** #define MPUREG_PWR_MGMT_1		0x6B
  60:../Libraries/AQ_Platform_MPU6000/Platform_MPU6000.h **** #define MPUREG_PWR_MGMT_2		0x6C
  61:../Libraries/AQ_Platform_MPU6000/Platform_MPU6000.h **** #define MPUREG_FIFO_COUNTH		0x72
  62:../Libraries/AQ_Platform_MPU6000/Platform_MPU6000.h **** #define MPUREG_FIFO_COUNTL		0x73
  63:../Libraries/AQ_Platform_MPU6000/Platform_MPU6000.h **** #define MPUREG_FIFO_R_W			0x74
  64:../Libraries/AQ_Platform_MPU6000/Platform_MPU6000.h **** 
  65:../Libraries/AQ_Platform_MPU6000/Platform_MPU6000.h **** 
  66:../Libraries/AQ_Platform_MPU6000/Platform_MPU6000.h **** // Configuration bits
  67:../Libraries/AQ_Platform_MPU6000/Platform_MPU6000.h **** #define BIT_SLEEP				0x40
  68:../Libraries/AQ_Platform_MPU6000/Platform_MPU6000.h **** #define BIT_H_RESET				0x80
  69:../Libraries/AQ_Platform_MPU6000/Platform_MPU6000.h **** #define BITS_CLKSEL				0x07
  70:../Libraries/AQ_Platform_MPU6000/Platform_MPU6000.h **** #define MPU_CLK_SEL_PLLGYROX	0x01
  71:../Libraries/AQ_Platform_MPU6000/Platform_MPU6000.h **** #define MPU_CLK_SEL_PLLGYROZ	0x03
  72:../Libraries/AQ_Platform_MPU6000/Platform_MPU6000.h **** #define MPU_EXT_SYNC_GYROX		0x02
  73:../Libraries/AQ_Platform_MPU6000/Platform_MPU6000.h **** #define BITS_FS_250DPS          0x00
  74:../Libraries/AQ_Platform_MPU6000/Platform_MPU6000.h **** #define BITS_FS_500DPS          0x08
  75:../Libraries/AQ_Platform_MPU6000/Platform_MPU6000.h **** #define BITS_FS_1000DPS         0x10
  76:../Libraries/AQ_Platform_MPU6000/Platform_MPU6000.h **** #define BITS_FS_2000DPS         0x18
  77:../Libraries/AQ_Platform_MPU6000/Platform_MPU6000.h **** #define BITS_FS_MASK            0x18
  78:../Libraries/AQ_Platform_MPU6000/Platform_MPU6000.h **** #define BITS_DLPF_CFG_256HZ_NOLPF2  0x00
  79:../Libraries/AQ_Platform_MPU6000/Platform_MPU6000.h **** #define BITS_DLPF_CFG_188HZ         0x01
  80:../Libraries/AQ_Platform_MPU6000/Platform_MPU6000.h **** #define BITS_DLPF_CFG_98HZ          0x02
  81:../Libraries/AQ_Platform_MPU6000/Platform_MPU6000.h **** #define BITS_DLPF_CFG_42HZ          0x03
  82:../Libraries/AQ_Platform_MPU6000/Platform_MPU6000.h **** #define BITS_DLPF_CFG_20HZ          0x04
  83:../Libraries/AQ_Platform_MPU6000/Platform_MPU6000.h **** #define BITS_DLPF_CFG_10HZ          0x05
  84:../Libraries/AQ_Platform_MPU6000/Platform_MPU6000.h **** #define BITS_DLPF_CFG_5HZ           0x06
  85:../Libraries/AQ_Platform_MPU6000/Platform_MPU6000.h **** #define BITS_DLPF_CFG_2100HZ_NOLPF  0x07
  86:../Libraries/AQ_Platform_MPU6000/Platform_MPU6000.h **** #define BITS_DLPF_CFG_MASK          0x07
  87:../Libraries/AQ_Platform_MPU6000/Platform_MPU6000.h **** #define BIT_INT_ANYRD_2CLEAR    0x10
  88:../Libraries/AQ_Platform_MPU6000/Platform_MPU6000.h **** #define BIT_RAW_RDY_EN			0x01
  89:../Libraries/AQ_Platform_MPU6000/Platform_MPU6000.h **** #define BIT_I2C_IF_DIS          0x10
  90:../Libraries/AQ_Platform_MPU6000/Platform_MPU6000.h **** #define BIT_INT_STATUS_DATA		0x01
  91:../Libraries/AQ_Platform_MPU6000/Platform_MPU6000.h **** 
  92:../Libraries/AQ_Platform_MPU6000/Platform_MPU6000.h **** 
  93:../Libraries/AQ_Platform_MPU6000/Platform_MPU6000.h **** typedef struct {
  94:../Libraries/AQ_Platform_MPU6000/Platform_MPU6000.h ****   short x;
  95:../Libraries/AQ_Platform_MPU6000/Platform_MPU6000.h ****   short y;
  96:../Libraries/AQ_Platform_MPU6000/Platform_MPU6000.h ****   short z;
  97:../Libraries/AQ_Platform_MPU6000/Platform_MPU6000.h **** } tAxis;
  98:../Libraries/AQ_Platform_MPU6000/Platform_MPU6000.h **** 
  99:../Libraries/AQ_Platform_MPU6000/Platform_MPU6000.h **** union uMPU6000 {
 100:../Libraries/AQ_Platform_MPU6000/Platform_MPU6000.h ****   unsigned char rawByte[];
 101:../Libraries/AQ_Platform_MPU6000/Platform_MPU6000.h ****   unsigned short rawWord[];
 102:../Libraries/AQ_Platform_MPU6000/Platform_MPU6000.h ****   struct {
 103:../Libraries/AQ_Platform_MPU6000/Platform_MPU6000.h **** 	tAxis accel;
 104:../Libraries/AQ_Platform_MPU6000/Platform_MPU6000.h **** 	short temperature;
 105:../Libraries/AQ_Platform_MPU6000/Platform_MPU6000.h **** 	tAxis gyro;
 106:../Libraries/AQ_Platform_MPU6000/Platform_MPU6000.h ****   } data;
 107:../Libraries/AQ_Platform_MPU6000/Platform_MPU6000.h **** } MPU6000;
 108:../Libraries/AQ_Platform_MPU6000/Platform_MPU6000.h **** 
 109:../Libraries/AQ_Platform_MPU6000/Platform_MPU6000.h **** 
 110:../Libraries/AQ_Platform_MPU6000/Platform_MPU6000.h **** #ifdef MPU6000_I2C
 111:../Libraries/AQ_Platform_MPU6000/Platform_MPU6000.h ****   #ifndef MPU6000_I2C_ADDRESS
 112:../Libraries/AQ_Platform_MPU6000/Platform_MPU6000.h **** 	#define MPU6000_I2C_ADDRESS 0x68
 113:../Libraries/AQ_Platform_MPU6000/Platform_MPU6000.h ****   #endif
 114:../Libraries/AQ_Platform_MPU6000/Platform_MPU6000.h **** #else
 115:../Libraries/AQ_Platform_MPU6000/Platform_MPU6000.h ****   #include <HardwareSPIExt.h>
 116:../Libraries/AQ_Platform_MPU6000/Platform_MPU6000.h ****   HardwareSPIExt spiMPU6000(4);
 117:../Libraries/AQ_Platform_MPU6000/Platform_MPU6000.h **** #endif
 118:../Libraries/AQ_Platform_MPU6000/Platform_MPU6000.h **** 
 119:../Libraries/AQ_Platform_MPU6000/Platform_MPU6000.h **** void MPU6000_SpiLowSpeed()
 120:../Libraries/AQ_Platform_MPU6000/Platform_MPU6000.h **** {
 765              		.loc 8 120 0
 766              		.cfi_startproc
 767              		@ args = 0, pretend = 0, frame = 0
 768              		@ frame_needed = 0, uses_anonymous_args = 0
 769              	.LVL50:
 770 0000 10B5     		push	{r4, lr}
 771              	.LCFI1:
 772              		.cfi_def_cfa_offset 8
 773              		.cfi_offset 4, -8
 774              		.cfi_offset 14, -4
 775              	.LBB109:
 776              	.LBB110:
  33:../Libraries/AQ_SPI/HardwareSPIExt.h **** 		SetPin(fCS, 1);
 777              		.loc 7 33 0
 778 0002 084C     		ldr	r4, .L54
 779 0004 0121     		movs	r1, #1
 780 0006 2079     		ldrb	r0, [r4, #4]	@ zero_extendqisi2
 781 0008 FFF7FEFF 		bl	_Z12digitalWritehh
 782              	.LVL51:
  34:../Libraries/AQ_SPI/HardwareSPIExt.h **** 		pinMode(fCS, OUTPUT);
 783              		.loc 7 34 0
 784 000c 2079     		ldrb	r0, [r4, #4]	@ zero_extendqisi2
 785 000e 0021     		movs	r1, #0
 786 0010 FFF7FEFF 		bl	_Z7pinModeh13WiringPinMode
 787              	.LVL52:
  36:../Libraries/AQ_SPI/HardwareSPIExt.h **** 		HardwareSPI::begin(frequency, bitOrder, mode);
 788              		.loc 7 36 0
 789 0014 2046     		mov	r0, r4
 790 0016 0521     		movs	r1, #5
 791 0018 0122     		movs	r2, #1
 792 001a 0323     		movs	r3, #3
 793              	.LBE110:
 794              	.LBE109:
 121:../Libraries/AQ_Platform_MPU6000/Platform_MPU6000.h ****   #ifndef MPU6000_I2C
 122:../Libraries/AQ_Platform_MPU6000/Platform_MPU6000.h **** 	spiMPU6000.begin(SPI_562_500KHZ, MSBFIRST, 3);
 123:../Libraries/AQ_Platform_MPU6000/Platform_MPU6000.h ****   #endif
 124:../Libraries/AQ_Platform_MPU6000/Platform_MPU6000.h **** }
 795              		.loc 8 124 0
 796 001c BDE81040 		pop	{r4, lr}
 797              	.LBB112:
 798              	.LBB111:
  36:../Libraries/AQ_SPI/HardwareSPIExt.h **** 		HardwareSPI::begin(frequency, bitOrder, mode);
 799              		.loc 7 36 0
 800 0020 FFF7FEBF 		b	_ZN11HardwareSPI5beginE12SPIFrequencyjj
 801              	.LVL53:
 802              	.L55:
 803              		.align	2
 804              	.L54:
 805 0024 00000000 		.word	.LANCHOR11
 806              	.LBE111:
 807              	.LBE112:
 808              		.cfi_endproc
 809              	.LFE140:
 811              		.section	.text._Z20MPU6000_SpiHighSpeedv,"ax",%progbits
 812              		.align	1
 813              		.global	_Z20MPU6000_SpiHighSpeedv
 814              		.thumb
 815              		.thumb_func
 817              	_Z20MPU6000_SpiHighSpeedv:
 818              	.LFB141:
 125:../Libraries/AQ_Platform_MPU6000/Platform_MPU6000.h **** 
 126:../Libraries/AQ_Platform_MPU6000/Platform_MPU6000.h **** void MPU6000_SpiHighSpeed()
 127:../Libraries/AQ_Platform_MPU6000/Platform_MPU6000.h **** {
 819              		.loc 8 127 0
 820              		.cfi_startproc
 821              		@ args = 0, pretend = 0, frame = 0
 822              		@ frame_needed = 0, uses_anonymous_args = 0
 823 0000 10B5     		push	{r4, lr}
 824              	.LCFI2:
 825              		.cfi_def_cfa_offset 8
 826              		.cfi_offset 4, -8
 827              		.cfi_offset 14, -4
 128:../Libraries/AQ_Platform_MPU6000/Platform_MPU6000.h ****   #ifndef MPU6000_I2C
 129:../Libraries/AQ_Platform_MPU6000/Platform_MPU6000.h **** 	spiMPU6000.end();
 828              		.loc 8 129 0
 829 0002 0A4C     		ldr	r4, .L57
 830 0004 2046     		mov	r0, r4
 831 0006 FFF7FEFF 		bl	_ZN11HardwareSPI3endEv
 832              	.LVL54:
 833              	.LBB115:
 834              	.LBB116:
  33:../Libraries/AQ_SPI/HardwareSPIExt.h **** 		SetPin(fCS, 1);
 835              		.loc 7 33 0
 836 000a 2079     		ldrb	r0, [r4, #4]	@ zero_extendqisi2
 837 000c 0121     		movs	r1, #1
 838 000e FFF7FEFF 		bl	_Z12digitalWritehh
 839              	.LVL55:
  34:../Libraries/AQ_SPI/HardwareSPIExt.h **** 		pinMode(fCS, OUTPUT);
 840              		.loc 7 34 0
 841 0012 2079     		ldrb	r0, [r4, #4]	@ zero_extendqisi2
 842 0014 0021     		movs	r1, #0
 843 0016 FFF7FEFF 		bl	_Z7pinModeh13WiringPinMode
 844              	.LVL56:
  36:../Libraries/AQ_SPI/HardwareSPIExt.h **** 		HardwareSPI::begin(frequency, bitOrder, mode);
 845              		.loc 7 36 0
 846 001a 0121     		movs	r1, #1
 847 001c 2046     		mov	r0, r4
 848 001e 0A46     		mov	r2, r1
 849 0020 0323     		movs	r3, #3
 850              	.LBE116:
 851              	.LBE115:
 130:../Libraries/AQ_Platform_MPU6000/Platform_MPU6000.h ****     spiMPU6000.begin(SPI_9MHZ, MSBFIRST, 3);
 131:../Libraries/AQ_Platform_MPU6000/Platform_MPU6000.h ****   #endif
 132:../Libraries/AQ_Platform_MPU6000/Platform_MPU6000.h **** }
 852              		.loc 8 132 0
 853 0022 BDE81040 		pop	{r4, lr}
 854              	.LBB118:
 855              	.LBB117:
  36:../Libraries/AQ_SPI/HardwareSPIExt.h **** 		HardwareSPI::begin(frequency, bitOrder, mode);
 856              		.loc 7 36 0
 857 0026 FFF7FEBF 		b	_ZN11HardwareSPI5beginE12SPIFrequencyjj
 858              	.LVL57:
 859              	.L58:
 860 002a 00BF     		.align	2
 861              	.L57:
 862 002c 00000000 		.word	.LANCHOR11
 863              	.LBE117:
 864              	.LBE118:
 865              		.cfi_endproc
 866              	.LFE141:
 868              		.section	.text._Z16MPU6000_WriteRegih,"ax",%progbits
 869              		.align	1
 870              		.global	_Z16MPU6000_WriteRegih
 871              		.thumb
 872              		.thumb_func
 874              	_Z16MPU6000_WriteRegih:
 875              	.LFB142:
 133:../Libraries/AQ_Platform_MPU6000/Platform_MPU6000.h **** 
 134:../Libraries/AQ_Platform_MPU6000/Platform_MPU6000.h **** void MPU6000_WriteReg(int addr, byte data)
 135:../Libraries/AQ_Platform_MPU6000/Platform_MPU6000.h **** {
 876              		.loc 8 135 0
 877              		.cfi_startproc
 878              		@ args = 0, pretend = 0, frame = 0
 879              		@ frame_needed = 0, uses_anonymous_args = 0
 880              	.LVL58:
 881 0000 70B5     		push	{r4, r5, r6, lr}
 882              	.LCFI3:
 883              		.cfi_def_cfa_offset 16
 884              		.cfi_offset 4, -16
 885              		.cfi_offset 5, -12
 886              		.cfi_offset 6, -8
 887              		.cfi_offset 14, -4
 888              	.LBB123:
 889              	.LBB124:
 890              	.LBB125:
  48:../Libraries/AQ_SPI/HardwareSPIExt.h **** 
  49:../Libraries/AQ_SPI/HardwareSPIExt.h **** 	unsigned char Read(int addr)
  50:../Libraries/AQ_SPI/HardwareSPIExt.h **** 	{
  51:../Libraries/AQ_SPI/HardwareSPIExt.h **** 		unsigned char data;
  52:../Libraries/AQ_SPI/HardwareSPIExt.h **** 		Read(addr, &data, 1);
  53:../Libraries/AQ_SPI/HardwareSPIExt.h **** 
  54:../Libraries/AQ_SPI/HardwareSPIExt.h **** 		return data;
  55:../Libraries/AQ_SPI/HardwareSPIExt.h **** 	}
  56:../Libraries/AQ_SPI/HardwareSPIExt.h **** 
  57:../Libraries/AQ_SPI/HardwareSPIExt.h **** 	void Write(int addr, unsigned char *data, int dataLen)
  58:../Libraries/AQ_SPI/HardwareSPIExt.h **** 	{
  59:../Libraries/AQ_SPI/HardwareSPIExt.h **** 		SetPin(fCS, 0);
 891              		.loc 7 59 0
 892 0002 0D4C     		ldr	r4, .L60
 893              	.LBE125:
 894              	.LBE124:
 895              	.LBE123:
 896              		.loc 8 135 0
 897 0004 0646     		mov	r6, r0
 898              	.LVL59:
 899 0006 0D46     		mov	r5, r1
 900              	.LVL60:
 901              	.LBB128:
 902              	.LBB127:
 903              	.LBB126:
 904              		.loc 7 59 0
 905 0008 2079     		ldrb	r0, [r4, #4]	@ zero_extendqisi2
 906              	.LVL61:
 907 000a 0021     		movs	r1, #0
 908              	.LVL62:
 909 000c FFF7FEFF 		bl	_Z12digitalWritehh
 910              	.LVL63:
  60:../Libraries/AQ_SPI/HardwareSPIExt.h **** 		transfer(addr | fSpiMultiFlag);
 911              		.loc 7 60 0
 912 0010 237A     		ldrb	r3, [r4, #8]	@ zero_extendqisi2
 913 0012 46EA0301 		orr	r1, r6, r3
 914 0016 2046     		mov	r0, r4
 915 0018 C9B2     		uxtb	r1, r1
 916 001a FFF7FEFF 		bl	_ZN11HardwareSPI8transferEh
 917              	.LVL64:
  61:../Libraries/AQ_SPI/HardwareSPIExt.h **** 		while(dataLen-- > 0) {
  62:../Libraries/AQ_SPI/HardwareSPIExt.h **** 			transfer(*data++);
 918              		.loc 7 62 0
 919 001e 2946     		mov	r1, r5
 920 0020 2046     		mov	r0, r4
 921 0022 FFF7FEFF 		bl	_ZN11HardwareSPI8transferEh
 922              	.LVL65:
  63:../Libraries/AQ_SPI/HardwareSPIExt.h **** 		}
  64:../Libraries/AQ_SPI/HardwareSPIExt.h **** 		SetPin(fCS, 1);
 923              		.loc 7 64 0
 924 0026 2079     		ldrb	r0, [r4, #4]	@ zero_extendqisi2
 925 0028 0121     		movs	r1, #1
 926 002a FFF7FEFF 		bl	_Z12digitalWritehh
 927              	.LVL66:
 928              	.LBE126:
 929              	.LBE127:
 930              	.LBE128:
 136:../Libraries/AQ_Platform_MPU6000/Platform_MPU6000.h ****   #ifdef MPU6000_I2C
 137:../Libraries/AQ_Platform_MPU6000/Platform_MPU6000.h **** 	updateRegisterI2C(MPU6000_I2C_ADDRESS, addr, data);
 138:../Libraries/AQ_Platform_MPU6000/Platform_MPU6000.h ****   #else
 139:../Libraries/AQ_Platform_MPU6000/Platform_MPU6000.h **** 	spiMPU6000.Write(addr, data);
 140:../Libraries/AQ_Platform_MPU6000/Platform_MPU6000.h ****   #endif
 141:../Libraries/AQ_Platform_MPU6000/Platform_MPU6000.h ****   delay(1);
 931              		.loc 8 141 0
 932 002e 0120     		movs	r0, #1
 142:../Libraries/AQ_Platform_MPU6000/Platform_MPU6000.h **** }
 933              		.loc 8 142 0
 934 0030 BDE87040 		pop	{r4, r5, r6, lr}
 141:../Libraries/AQ_Platform_MPU6000/Platform_MPU6000.h ****   delay(1);
 935              		.loc 8 141 0
 936 0034 FFF7FEBF 		b	_Z5delaym
 937              	.LVL67:
 938              	.L61:
 939              		.align	2
 940              	.L60:
 941 0038 00000000 		.word	.LANCHOR11
 942              		.cfi_endproc
 943              	.LFE142:
 945              		.section	.text._Z15MPU6000_ReadRegi,"ax",%progbits
 946              		.align	1
 947              		.global	_Z15MPU6000_ReadRegi
 948              		.thumb
 949              		.thumb_func
 951              	_Z15MPU6000_ReadRegi:
 952              	.LFB143:
 143:../Libraries/AQ_Platform_MPU6000/Platform_MPU6000.h **** 
 144:../Libraries/AQ_Platform_MPU6000/Platform_MPU6000.h **** byte MPU6000_ReadReg(int addr)
 145:../Libraries/AQ_Platform_MPU6000/Platform_MPU6000.h **** {
 953              		.loc 8 145 0
 954              		.cfi_startproc
 955              		@ args = 0, pretend = 0, frame = 8
 956              		@ frame_needed = 0, uses_anonymous_args = 0
 957              	.LVL68:
 958 0000 13B5     		push	{r0, r1, r4, lr}
 959              	.LCFI4:
 960              		.cfi_def_cfa_offset 16
 961              		.cfi_offset 0, -16
 962              		.cfi_offset 1, -12
 963              		.cfi_offset 4, -8
 964              		.cfi_offset 14, -4
 965              	.LBB133:
 966              	.LBB134:
 967              	.LBB135:
  52:../Libraries/AQ_SPI/HardwareSPIExt.h **** 		Read(addr, &data, 1);
 968              		.loc 7 52 0
 969 0002 0123     		movs	r3, #1
 970              	.LBE135:
 971              	.LBE134:
 972              	.LBE133:
 973              		.loc 8 145 0
 974 0004 0146     		mov	r1, r0
 975              	.LVL69:
 976              	.LBB138:
 977              	.LBB137:
 978              	.LBB136:
  52:../Libraries/AQ_SPI/HardwareSPIExt.h **** 		Read(addr, &data, 1);
 979              		.loc 7 52 0
 980 0006 0DF10702 		add	r2, sp, #7
 981 000a 0548     		ldr	r0, .L63
 982              	.LVL70:
 983 000c FFF7FEFF 		bl	_ZN14HardwareSPIExt4ReadEiPhi
 984              	.LVL71:
  54:../Libraries/AQ_SPI/HardwareSPIExt.h **** 		return data;
 985              		.loc 7 54 0
 986 0010 9DF80740 		ldrb	r4, [sp, #7]	@ zero_extendqisi2
 987              	.LBE136:
 988              	.LBE137:
 146:../Libraries/AQ_Platform_MPU6000/Platform_MPU6000.h ****   #ifdef MPU6000_I2C
 147:../Libraries/AQ_Platform_MPU6000/Platform_MPU6000.h **** 	sendByteI2C(MPU6000_I2C_ADDRESS, addr);
 148:../Libraries/AQ_Platform_MPU6000/Platform_MPU6000.h **** 	byte data = readByteI2C(MPU6000_I2C_ADDRESS);
 149:../Libraries/AQ_Platform_MPU6000/Platform_MPU6000.h ****   #else
 150:../Libraries/AQ_Platform_MPU6000/Platform_MPU6000.h **** 	byte data = spiMPU6000.Read(addr);
 151:../Libraries/AQ_Platform_MPU6000/Platform_MPU6000.h ****   #endif
 152:../Libraries/AQ_Platform_MPU6000/Platform_MPU6000.h ****   delay(1);
 989              		.loc 8 152 0
 990 0014 0120     		movs	r0, #1
 991 0016 FFF7FEFF 		bl	_Z5delaym
 992              	.LVL72:
 993              	.LBE138:
 153:../Libraries/AQ_Platform_MPU6000/Platform_MPU6000.h ****   return data;
 154:../Libraries/AQ_Platform_MPU6000/Platform_MPU6000.h **** }
 994              		.loc 8 154 0
 995 001a 2046     		mov	r0, r4
 996 001c 1CBD     		pop	{r2, r3, r4, pc}
 997              	.L64:
 998 001e 00BF     		.align	2
 999              	.L63:
 1000 0020 00000000 		.word	.LANCHOR11
 1001              		.cfi_endproc
 1002              	.LFE143:
 1004              		.section	.text._Z24initializeMPU6000Sensorsv,"ax",%progbits
 1005              		.align	1
 1006              		.global	_Z24initializeMPU6000Sensorsv
 1007              		.thumb
 1008              		.thumb_func
 1010              	_Z24initializeMPU6000Sensorsv:
 1011              	.LFB144:
 155:../Libraries/AQ_Platform_MPU6000/Platform_MPU6000.h **** 
 156:../Libraries/AQ_Platform_MPU6000/Platform_MPU6000.h **** bool initializeMPU6000SensorsDone = false;
 157:../Libraries/AQ_Platform_MPU6000/Platform_MPU6000.h **** void initializeMPU6000Sensors()
 158:../Libraries/AQ_Platform_MPU6000/Platform_MPU6000.h **** {
 1012              		.loc 8 158 0
 1013              		.cfi_startproc
 1014              		@ args = 0, pretend = 0, frame = 0
 1015              		@ frame_needed = 0, uses_anonymous_args = 0
 1016              	.LBB143:
 159:../Libraries/AQ_Platform_MPU6000/Platform_MPU6000.h ****   if(initializeMPU6000SensorsDone) {
 1017              		.loc 8 159 0
 1018 0000 1E4B     		ldr	r3, .L69
 1019              	.LBE143:
 158:../Libraries/AQ_Platform_MPU6000/Platform_MPU6000.h **** {
 1020              		.loc 8 158 0
 1021 0002 10B5     		push	{r4, lr}
 1022              	.LCFI5:
 1023              		.cfi_def_cfa_offset 8
 1024              		.cfi_offset 4, -8
 1025              		.cfi_offset 14, -4
 1026              	.LBB144:
 1027              		.loc 8 159 0
 1028 0004 1C78     		ldrb	r4, [r3, #0]	@ zero_extendqisi2
 1029 0006 002C     		cmp	r4, #0
 1030 0008 36D1     		bne	.L65
 160:../Libraries/AQ_Platform_MPU6000/Platform_MPU6000.h **** 	return;
 161:../Libraries/AQ_Platform_MPU6000/Platform_MPU6000.h ****   }
 162:../Libraries/AQ_Platform_MPU6000/Platform_MPU6000.h ****   initializeMPU6000SensorsDone = true;
 1031              		.loc 8 162 0
 1032 000a 0122     		movs	r2, #1
 1033 000c 1A70     		strb	r2, [r3, #0]
 163:../Libraries/AQ_Platform_MPU6000/Platform_MPU6000.h **** 
 164:../Libraries/AQ_Platform_MPU6000/Platform_MPU6000.h ****   MPU6000_SpiLowSpeed();
 1034              		.loc 8 164 0
 1035 000e FFF7FEFF 		bl	_Z19MPU6000_SpiLowSpeedv
 1036              	.LVL73:
 165:../Libraries/AQ_Platform_MPU6000/Platform_MPU6000.h **** 
 166:../Libraries/AQ_Platform_MPU6000/Platform_MPU6000.h ****   unsigned char val;
 167:../Libraries/AQ_Platform_MPU6000/Platform_MPU6000.h **** 
 168:../Libraries/AQ_Platform_MPU6000/Platform_MPU6000.h ****   val = MPU6000_ReadReg(MPUREG_WHOAMI);
 1037              		.loc 8 168 0
 1038 0012 7520     		movs	r0, #117
 1039 0014 FFF7FEFF 		bl	_Z15MPU6000_ReadRegi
 1040              	.LVL74:
 169:../Libraries/AQ_Platform_MPU6000/Platform_MPU6000.h ****   if((val&0x7E) == 0x68) {
 1041              		.loc 8 169 0
 1042 0018 00F07E00 		and	r0, r0, #126
 1043              	.LVL75:
 1044 001c 6828     		cmp	r0, #104
 1045 001e 2BD1     		bne	.L65
 1046              	.LBE144:
 1047              	.LBB145:
 1048              	.LBB146:
 170:../Libraries/AQ_Platform_MPU6000/Platform_MPU6000.h **** 	vehicleState |= GYRO_DETECTED;
 171:../Libraries/AQ_Platform_MPU6000/Platform_MPU6000.h **** 	vehicleState |= ACCEL_DETECTED;
 1049              		.loc 8 171 0
 1050 0020 1749     		ldr	r1, .L69+4
 1051 0022 0B68     		ldr	r3, [r1, #0]
 1052 0024 43F00302 		orr	r2, r3, #3
 1053 0028 0A60     		str	r2, [r1, #0]
 172:../Libraries/AQ_Platform_MPU6000/Platform_MPU6000.h ****   } 
 173:../Libraries/AQ_Platform_MPU6000/Platform_MPU6000.h ****   else {
 174:../Libraries/AQ_Platform_MPU6000/Platform_MPU6000.h **** 	return;
 175:../Libraries/AQ_Platform_MPU6000/Platform_MPU6000.h ****   }
 176:../Libraries/AQ_Platform_MPU6000/Platform_MPU6000.h **** 
 177:../Libraries/AQ_Platform_MPU6000/Platform_MPU6000.h ****   // Chip reset
 178:../Libraries/AQ_Platform_MPU6000/Platform_MPU6000.h ****   MPU6000_WriteReg(MPUREG_PWR_MGMT_1, BIT_H_RESET);
 1054              		.loc 8 178 0
 1055 002a 6B20     		movs	r0, #107
 1056 002c 8021     		movs	r1, #128
 1057 002e FFF7FEFF 		bl	_Z16MPU6000_WriteRegih
 1058              	.LVL76:
 179:../Libraries/AQ_Platform_MPU6000/Platform_MPU6000.h ****   delay(100);  // Startup time delay
 1059              		.loc 8 179 0
 1060 0032 6420     		movs	r0, #100
 1061 0034 FFF7FEFF 		bl	_Z5delaym
 1062              	.LVL77:
 180:../Libraries/AQ_Platform_MPU6000/Platform_MPU6000.h **** 
 181:../Libraries/AQ_Platform_MPU6000/Platform_MPU6000.h ****   #ifndef MPU6000_I2C
 182:../Libraries/AQ_Platform_MPU6000/Platform_MPU6000.h ****     // Disable I2C bus
 183:../Libraries/AQ_Platform_MPU6000/Platform_MPU6000.h ****     MPU6000_WriteReg(MPUREG_USER_CTRL, BIT_I2C_IF_DIS);
 1063              		.loc 8 183 0
 1064 0038 6A20     		movs	r0, #106
 1065 003a 1021     		movs	r1, #16
 1066 003c FFF7FEFF 		bl	_Z16MPU6000_WriteRegih
 1067              	.LVL78:
 184:../Libraries/AQ_Platform_MPU6000/Platform_MPU6000.h ****   #endif
 185:../Libraries/AQ_Platform_MPU6000/Platform_MPU6000.h **** 
 186:../Libraries/AQ_Platform_MPU6000/Platform_MPU6000.h ****   // Wake Up device and select GyroZ clock (better performance)
 187:../Libraries/AQ_Platform_MPU6000/Platform_MPU6000.h ****   MPU6000_WriteReg(MPUREG_PWR_MGMT_1, MPU_CLK_SEL_PLLGYROZ);
 1068              		.loc 8 187 0
 1069 0040 6B20     		movs	r0, #107
 1070 0042 0321     		movs	r1, #3
 1071 0044 FFF7FEFF 		bl	_Z16MPU6000_WriteRegih
 1072              	.LVL79:
 188:../Libraries/AQ_Platform_MPU6000/Platform_MPU6000.h ****   MPU6000_WriteReg(MPUREG_PWR_MGMT_2, 0);
 1073              		.loc 8 188 0
 1074 0048 6C20     		movs	r0, #108
 1075 004a 2146     		mov	r1, r4
 1076 004c FFF7FEFF 		bl	_Z16MPU6000_WriteRegih
 1077              	.LVL80:
 189:../Libraries/AQ_Platform_MPU6000/Platform_MPU6000.h **** 
 190:../Libraries/AQ_Platform_MPU6000/Platform_MPU6000.h ****   // SAMPLE RATE
 191:../Libraries/AQ_Platform_MPU6000/Platform_MPU6000.h ****   MPU6000_WriteReg(MPUREG_SMPLRT_DIV,0x00);     // Sample rate = 1kHz
 1078              		.loc 8 191 0
 1079 0050 1920     		movs	r0, #25
 1080 0052 2146     		mov	r1, r4
 1081 0054 FFF7FEFF 		bl	_Z16MPU6000_WriteRegih
 1082              	.LVL81:
 192:../Libraries/AQ_Platform_MPU6000/Platform_MPU6000.h **** 
 193:../Libraries/AQ_Platform_MPU6000/Platform_MPU6000.h ****   // FS & DLPF   FS=1000/s, DLPF = 42Hz (low pass filter)
 194:../Libraries/AQ_Platform_MPU6000/Platform_MPU6000.h ****   MPU6000_WriteReg(MPUREG_CONFIG, BITS_DLPF_CFG_42HZ);
 1083              		.loc 8 194 0
 1084 0058 1A20     		movs	r0, #26
 1085 005a 0321     		movs	r1, #3
 1086 005c FFF7FEFF 		bl	_Z16MPU6000_WriteRegih
 1087              	.LVL82:
 195:../Libraries/AQ_Platform_MPU6000/Platform_MPU6000.h ****   MPU6000_WriteReg(MPUREG_GYRO_CONFIG,BITS_FS_1000DPS);  // Gyro scale 1000/s
 1088              		.loc 8 195 0
 1089 0060 1B20     		movs	r0, #27
 1090 0062 1021     		movs	r1, #16
 1091 0064 FFF7FEFF 		bl	_Z16MPU6000_WriteRegih
 1092              	.LVL83:
 196:../Libraries/AQ_Platform_MPU6000/Platform_MPU6000.h ****   MPU6000_WriteReg(MPUREG_ACCEL_CONFIG,0x08);   // Accel scale +-4g (4096LSB/g)
 1093              		.loc 8 196 0
 1094 0068 1C20     		movs	r0, #28
 1095 006a 0821     		movs	r1, #8
 1096 006c FFF7FEFF 		bl	_Z16MPU6000_WriteRegih
 1097              	.LVL84:
 1098              	.LBE146:
 1099              	.LBE145:
 197:../Libraries/AQ_Platform_MPU6000/Platform_MPU6000.h **** 
 198:../Libraries/AQ_Platform_MPU6000/Platform_MPU6000.h **** 
 199:../Libraries/AQ_Platform_MPU6000/Platform_MPU6000.h ****   // switch to high clock rate
 200:../Libraries/AQ_Platform_MPU6000/Platform_MPU6000.h ****   MPU6000_SpiHighSpeed();
 201:../Libraries/AQ_Platform_MPU6000/Platform_MPU6000.h **** }
 1100              		.loc 8 201 0
 1101 0070 BDE81040 		pop	{r4, lr}
 1102              	.LBB148:
 1103              	.LBB147:
 200:../Libraries/AQ_Platform_MPU6000/Platform_MPU6000.h ****   MPU6000_SpiHighSpeed();
 1104              		.loc 8 200 0
 1105 0074 FFF7FEBF 		b	_Z20MPU6000_SpiHighSpeedv
 1106              	.LVL85:
 1107              	.L65:
 1108 0078 10BD     		pop	{r4, pc}
 1109              	.L70:
 1110 007a 00BF     		.align	2
 1111              	.L69:
 1112 007c 00000000 		.word	.LANCHOR12
 1113 0080 00000000 		.word	.LANCHOR13
 1114              	.LBE147:
 1115              	.LBE148:
 1116              		.cfi_endproc
 1117              	.LFE144:
 1119              		.section	.text._Z15MPU6000SwapDataPhi,"ax",%progbits
 1120              		.align	1
 1121              		.global	_Z15MPU6000SwapDataPhi
 1122              		.thumb
 1123              		.thumb_func
 1125              	_Z15MPU6000SwapDataPhi:
 1126              	.LFB145:
 202:../Libraries/AQ_Platform_MPU6000/Platform_MPU6000.h **** 
 203:../Libraries/AQ_Platform_MPU6000/Platform_MPU6000.h **** 
 204:../Libraries/AQ_Platform_MPU6000/Platform_MPU6000.h **** void MPU6000SwapData(unsigned char *data, int datalen)
 205:../Libraries/AQ_Platform_MPU6000/Platform_MPU6000.h **** {
 1127              		.loc 8 205 0
 1128              		.cfi_startproc
 1129              		@ args = 0, pretend = 0, frame = 0
 1130              		@ frame_needed = 0, uses_anonymous_args = 0
 1131              		@ link register save eliminated.
 1132              	.LVL86:
 1133              	.LBB149:
 206:../Libraries/AQ_Platform_MPU6000/Platform_MPU6000.h ****   datalen /= 2;
 1134              		.loc 8 206 0
 1135 0000 0223     		movs	r3, #2
 1136 0002 91FBF3F1 		sdiv	r1, r1, r3
 1137              	.LVL87:
 1138              	.L72:
 207:../Libraries/AQ_Platform_MPU6000/Platform_MPU6000.h ****   while(datalen--) {
 1139              		.loc 8 207 0 discriminator 1
 1140 0006 0139     		subs	r1, r1, #1
 1141              	.LVL88:
 1142 0008 0230     		adds	r0, r0, #2
 1143 000a 4B1C     		adds	r3, r1, #1
 1144 000c 08D0     		beq	.L74
 1145              	.L73:
 1146              	.LBB150:
 208:../Libraries/AQ_Platform_MPU6000/Platform_MPU6000.h ****     unsigned char t = data[0];
 1147              		.loc 8 208 0
 1148 000e 10F8023C 		ldrb	r3, [r0, #-2]	@ zero_extendqisi2
 1149              	.LVL89:
 209:../Libraries/AQ_Platform_MPU6000/Platform_MPU6000.h ****     data[0] = data[1];
 1150              		.loc 8 209 0
 1151 0012 10F8012C 		ldrb	r2, [r0, #-1]	@ zero_extendqisi2
 210:../Libraries/AQ_Platform_MPU6000/Platform_MPU6000.h ****     data[1] = t;
 1152              		.loc 8 210 0
 1153 0016 00F8013C 		strb	r3, [r0, #-1]
 209:../Libraries/AQ_Platform_MPU6000/Platform_MPU6000.h ****     data[0] = data[1];
 1154              		.loc 8 209 0
 1155 001a 00F8022C 		strb	r2, [r0, #-2]
 1156 001e F2E7     		b	.L72
 1157              	.LVL90:
 1158              	.L74:
 1159              	.LBE150:
 1160              	.LBE149:
 211:../Libraries/AQ_Platform_MPU6000/Platform_MPU6000.h ****     data += 2;
 212:../Libraries/AQ_Platform_MPU6000/Platform_MPU6000.h ****   }
 213:../Libraries/AQ_Platform_MPU6000/Platform_MPU6000.h **** }
 1161              		.loc 8 213 0
 1162 0020 7047     		bx	lr
 1163              		.cfi_endproc
 1164              	.LFE145:
 1166              		.section	.text._Z18readMPU6000Sensorsv,"ax",%progbits
 1167              		.align	1
 1168              		.global	_Z18readMPU6000Sensorsv
 1169              		.thumb
 1170              		.thumb_func
 1172              	_Z18readMPU6000Sensorsv:
 1173              	.LFB146:
 214:../Libraries/AQ_Platform_MPU6000/Platform_MPU6000.h **** 
 215:../Libraries/AQ_Platform_MPU6000/Platform_MPU6000.h **** void readMPU6000Sensors()
 216:../Libraries/AQ_Platform_MPU6000/Platform_MPU6000.h **** {
 1174              		.loc 8 216 0
 1175              		.cfi_startproc
 1176              		@ args = 0, pretend = 0, frame = 0
 1177              		@ frame_needed = 0, uses_anonymous_args = 0
 1178 0000 10B5     		push	{r4, lr}
 1179              	.LCFI6:
 1180              		.cfi_def_cfa_offset 8
 1181              		.cfi_offset 4, -8
 1182              		.cfi_offset 14, -4
 217:../Libraries/AQ_Platform_MPU6000/Platform_MPU6000.h ****   #ifdef MPU6000_I2C
 218:../Libraries/AQ_Platform_MPU6000/Platform_MPU6000.h ****     sendByteI2C(MPU6000_I2C_ADDRESS, MPUREG_ACCEL_XOUT_H);
 219:../Libraries/AQ_Platform_MPU6000/Platform_MPU6000.h ****     Wire.requestFrom(MPU6000_I2C_ADDRESS, sizeof(MPU6000));
 220:../Libraries/AQ_Platform_MPU6000/Platform_MPU6000.h ****     for(byte i=0; i<sizeof(MPU6000)/sizeof(short); i++) {
 221:../Libraries/AQ_Platform_MPU6000/Platform_MPU6000.h ****       MPU6000.rawWord[i] = readWordI2C();
 222:../Libraries/AQ_Platform_MPU6000/Platform_MPU6000.h ****     }
 223:../Libraries/AQ_Platform_MPU6000/Platform_MPU6000.h ****   #else
 224:../Libraries/AQ_Platform_MPU6000/Platform_MPU6000.h ****     spiMPU6000.Read(MPUREG_ACCEL_XOUT_H, MPU6000.rawByte, sizeof(MPU6000));
 1183              		.loc 8 224 0
 1184 0002 064C     		ldr	r4, .L76
 1185 0004 0648     		ldr	r0, .L76+4
 1186 0006 3B21     		movs	r1, #59
 1187 0008 2246     		mov	r2, r4
 1188 000a 0E23     		movs	r3, #14
 1189 000c FFF7FEFF 		bl	_ZN14HardwareSPIExt4ReadEiPhi
 1190              	.LVL91:
 225:../Libraries/AQ_Platform_MPU6000/Platform_MPU6000.h ****     MPU6000SwapData(MPU6000.rawByte, sizeof(MPU6000));
 1191              		.loc 8 225 0
 1192 0010 2046     		mov	r0, r4
 1193 0012 0E21     		movs	r1, #14
 226:../Libraries/AQ_Platform_MPU6000/Platform_MPU6000.h ****   #endif
 227:../Libraries/AQ_Platform_MPU6000/Platform_MPU6000.h **** }
 1194              		.loc 8 227 0
 1195 0014 BDE81040 		pop	{r4, lr}
 225:../Libraries/AQ_Platform_MPU6000/Platform_MPU6000.h ****     MPU6000SwapData(MPU6000.rawByte, sizeof(MPU6000));
 1196              		.loc 8 225 0
 1197 0018 FFF7FEBF 		b	_Z15MPU6000SwapDataPhi
 1198              	.LVL92:
 1199              	.L77:
 1200              		.align	2
 1201              	.L76:
 1202 001c 00000000 		.word	.LANCHOR14
 1203 0020 00000000 		.word	.LANCHOR11
 1204              		.cfi_endproc
 1205              	.LFE146:
 1207              		.section	.text._Z16readMPU6000Accelv,"ax",%progbits
 1208              		.align	1
 1209              		.global	_Z16readMPU6000Accelv
 1210              		.thumb
 1211              		.thumb_func
 1213              	_Z16readMPU6000Accelv:
 1214              	.LFB147:
 228:../Libraries/AQ_Platform_MPU6000/Platform_MPU6000.h **** 
 229:../Libraries/AQ_Platform_MPU6000/Platform_MPU6000.h **** int readMPU6000Count=0;
 230:../Libraries/AQ_Platform_MPU6000/Platform_MPU6000.h **** int readMPU6000AccelCount=0;
 231:../Libraries/AQ_Platform_MPU6000/Platform_MPU6000.h **** int readMPU6000GyroCount=0;
 232:../Libraries/AQ_Platform_MPU6000/Platform_MPU6000.h **** 
 233:../Libraries/AQ_Platform_MPU6000/Platform_MPU6000.h **** void readMPU6000Accel()
 234:../Libraries/AQ_Platform_MPU6000/Platform_MPU6000.h **** {
 1215              		.loc 8 234 0
 1216              		.cfi_startproc
 1217              		@ args = 0, pretend = 0, frame = 0
 1218              		@ frame_needed = 0, uses_anonymous_args = 0
 235:../Libraries/AQ_Platform_MPU6000/Platform_MPU6000.h ****   readMPU6000AccelCount++;
 1219              		.loc 8 235 0
 1220 0000 074A     		ldr	r2, .L80
 234:../Libraries/AQ_Platform_MPU6000/Platform_MPU6000.h **** {
 1221              		.loc 8 234 0
 1222 0002 10B5     		push	{r4, lr}
 1223              	.LCFI7:
 1224              		.cfi_def_cfa_offset 8
 1225              		.cfi_offset 4, -8
 1226              		.cfi_offset 14, -4
 236:../Libraries/AQ_Platform_MPU6000/Platform_MPU6000.h ****   if(readMPU6000AccelCount != readMPU6000Count) {
 1227              		.loc 8 236 0
 1228 0004 074C     		ldr	r4, .L80+4
 235:../Libraries/AQ_Platform_MPU6000/Platform_MPU6000.h ****   readMPU6000AccelCount++;
 1229              		.loc 8 235 0
 1230 0006 1368     		ldr	r3, [r2, #0]
 1231              		.loc 8 236 0
 1232 0008 2168     		ldr	r1, [r4, #0]
 235:../Libraries/AQ_Platform_MPU6000/Platform_MPU6000.h ****   readMPU6000AccelCount++;
 1233              		.loc 8 235 0
 1234 000a 581C     		adds	r0, r3, #1
 1235              		.loc 8 236 0
 1236 000c 8842     		cmp	r0, r1
 235:../Libraries/AQ_Platform_MPU6000/Platform_MPU6000.h ****   readMPU6000AccelCount++;
 1237              		.loc 8 235 0
 1238 000e 1060     		str	r0, [r2, #0]
 1239              		.loc 8 236 0
 1240 0010 04D0     		beq	.L78
 1241              	.LBB153:
 1242              	.LBB154:
 237:../Libraries/AQ_Platform_MPU6000/Platform_MPU6000.h ****     readMPU6000Sensors();
 1243              		.loc 8 237 0
 1244 0012 FFF7FEFF 		bl	_Z18readMPU6000Sensorsv
 1245              	.LVL93:
 238:../Libraries/AQ_Platform_MPU6000/Platform_MPU6000.h ****     readMPU6000Count++;
 1246              		.loc 8 238 0
 1247 0016 2268     		ldr	r2, [r4, #0]
 1248 0018 531C     		adds	r3, r2, #1
 1249 001a 2360     		str	r3, [r4, #0]
 1250              	.L78:
 1251 001c 10BD     		pop	{r4, pc}
 1252              	.L81:
 1253 001e 00BF     		.align	2
 1254              	.L80:
 1255 0020 00000000 		.word	.LANCHOR15
 1256 0024 00000000 		.word	.LANCHOR16
 1257              	.LBE154:
 1258              	.LBE153:
 1259              		.cfi_endproc
 1260              	.LFE147:
 1262              		.section	.text._Z15readMPU6000Gyrov,"ax",%progbits
 1263              		.align	1
 1264              		.global	_Z15readMPU6000Gyrov
 1265              		.thumb
 1266              		.thumb_func
 1268              	_Z15readMPU6000Gyrov:
 1269              	.LFB148:
 239:../Libraries/AQ_Platform_MPU6000/Platform_MPU6000.h ****   }
 240:../Libraries/AQ_Platform_MPU6000/Platform_MPU6000.h **** }
 241:../Libraries/AQ_Platform_MPU6000/Platform_MPU6000.h **** 
 242:../Libraries/AQ_Platform_MPU6000/Platform_MPU6000.h **** void readMPU6000Gyro()
 243:../Libraries/AQ_Platform_MPU6000/Platform_MPU6000.h **** {
 1270              		.loc 8 243 0
 1271              		.cfi_startproc
 1272              		@ args = 0, pretend = 0, frame = 0
 1273              		@ frame_needed = 0, uses_anonymous_args = 0
 1274 0000 10B5     		push	{r4, lr}
 1275              	.LCFI8:
 1276              		.cfi_def_cfa_offset 8
 1277              		.cfi_offset 4, -8
 1278              		.cfi_offset 14, -4
 244:../Libraries/AQ_Platform_MPU6000/Platform_MPU6000.h ****   readMPU6000GyroCount++;
 1279              		.loc 8 244 0
 1280 0002 074C     		ldr	r4, .L84
 245:../Libraries/AQ_Platform_MPU6000/Platform_MPU6000.h ****   if(readMPU6000GyroCount != readMPU6000Count) {
 1281              		.loc 8 245 0
 1282 0004 074A     		ldr	r2, .L84+4
 244:../Libraries/AQ_Platform_MPU6000/Platform_MPU6000.h ****   readMPU6000GyroCount++;
 1283              		.loc 8 244 0
 1284 0006 2368     		ldr	r3, [r4, #0]
 1285              		.loc 8 245 0
 1286 0008 1168     		ldr	r1, [r2, #0]
 244:../Libraries/AQ_Platform_MPU6000/Platform_MPU6000.h ****   readMPU6000GyroCount++;
 1287              		.loc 8 244 0
 1288 000a 581C     		adds	r0, r3, #1
 1289              		.loc 8 245 0
 1290 000c 8842     		cmp	r0, r1
 244:../Libraries/AQ_Platform_MPU6000/Platform_MPU6000.h ****   readMPU6000GyroCount++;
 1291              		.loc 8 244 0
 1292 000e 2060     		str	r0, [r4, #0]
 1293              		.loc 8 245 0
 1294 0010 04D0     		beq	.L82
 1295              	.LBB157:
 1296              	.LBB158:
 246:../Libraries/AQ_Platform_MPU6000/Platform_MPU6000.h ****     readMPU6000Sensors();
 1297              		.loc 8 246 0
 1298 0012 FFF7FEFF 		bl	_Z18readMPU6000Sensorsv
 1299              	.LVL94:
 247:../Libraries/AQ_Platform_MPU6000/Platform_MPU6000.h ****     readMPU6000GyroCount++;
 1300              		.loc 8 247 0
 1301 0016 2368     		ldr	r3, [r4, #0]
 1302 0018 581C     		adds	r0, r3, #1
 1303 001a 2060     		str	r0, [r4, #0]
 1304              	.L82:
 1305 001c 10BD     		pop	{r4, pc}
 1306              	.L85:
 1307 001e 00BF     		.align	2
 1308              	.L84:
 1309 0020 00000000 		.word	.LANCHOR17
 1310 0024 00000000 		.word	.LANCHOR16
 1311              	.LBE158:
 1312              	.LBE157:
 1313              		.cfi_endproc
 1314              	.LFE148:
 1316              		.section	.text._Z14initializeGyrov,"ax",%progbits
 1317              		.align	1
 1318              		.global	_Z14initializeGyrov
 1319              		.thumb
 1320              		.thumb_func
 1322              	_Z14initializeGyrov:
 1323              	.LFB149:
 1324              		.file 9 "../Libraries/AQ_Gyroscope/Gyroscope_MPU6000.h"
   1:../Libraries/AQ_Gyroscope/Gyroscope_MPU6000.h **** /*
   2:../Libraries/AQ_Gyroscope/Gyroscope_MPU6000.h ****   AeroQuad v3.0 - May 2011
   3:../Libraries/AQ_Gyroscope/Gyroscope_MPU6000.h ****   www.AeroQuad.com
   4:../Libraries/AQ_Gyroscope/Gyroscope_MPU6000.h ****   Copyright (c) 2011 Ted Carancho.  All rights reserved.
   5:../Libraries/AQ_Gyroscope/Gyroscope_MPU6000.h ****   An Open Source Arduino based multicopter.
   6:../Libraries/AQ_Gyroscope/Gyroscope_MPU6000.h **** 
   7:../Libraries/AQ_Gyroscope/Gyroscope_MPU6000.h ****   This program is free software: you can redistribute it and/or modify
   8:../Libraries/AQ_Gyroscope/Gyroscope_MPU6000.h ****   it under the terms of the GNU General Public License as published by
   9:../Libraries/AQ_Gyroscope/Gyroscope_MPU6000.h ****   the Free Software Foundation, either version 3 of the License, or
  10:../Libraries/AQ_Gyroscope/Gyroscope_MPU6000.h ****   (at your option) any later version.
  11:../Libraries/AQ_Gyroscope/Gyroscope_MPU6000.h **** 
  12:../Libraries/AQ_Gyroscope/Gyroscope_MPU6000.h ****   This program is distributed in the hope that it will be useful,
  13:../Libraries/AQ_Gyroscope/Gyroscope_MPU6000.h ****   but WITHOUT ANY WARRANTY; without even the implied warranty of
  14:../Libraries/AQ_Gyroscope/Gyroscope_MPU6000.h ****   MERCHANTABILITY or FITNESS FOR A PARTICULAR PURPOSE. See the
  15:../Libraries/AQ_Gyroscope/Gyroscope_MPU6000.h ****   GNU General Public License for more details.
  16:../Libraries/AQ_Gyroscope/Gyroscope_MPU6000.h **** 
  17:../Libraries/AQ_Gyroscope/Gyroscope_MPU6000.h ****   You should have received a copy of the GNU General Public License
  18:../Libraries/AQ_Gyroscope/Gyroscope_MPU6000.h ****   along with this program. If not, see <http://www.gnu.org/licenses/>.
  19:../Libraries/AQ_Gyroscope/Gyroscope_MPU6000.h **** */
  20:../Libraries/AQ_Gyroscope/Gyroscope_MPU6000.h **** 
  21:../Libraries/AQ_Gyroscope/Gyroscope_MPU6000.h **** #ifndef _AEROQUAD_GYROSCOPE_MPU6000_COMMON_H_
  22:../Libraries/AQ_Gyroscope/Gyroscope_MPU6000.h **** #define _AEROQUAD_GYROSCOPE_MPU6000_COMMON_H_
  23:../Libraries/AQ_Gyroscope/Gyroscope_MPU6000.h **** 
  24:../Libraries/AQ_Gyroscope/Gyroscope_MPU6000.h **** int gyroRaw[3] = {0,0,0};
  25:../Libraries/AQ_Gyroscope/Gyroscope_MPU6000.h **** 
  26:../Libraries/AQ_Gyroscope/Gyroscope_MPU6000.h **** #include <Platform_MPU6000.h>
  27:../Libraries/AQ_Gyroscope/Gyroscope_MPU6000.h **** #include <Gyroscope.h>
  28:../Libraries/AQ_Gyroscope/Gyroscope_MPU6000.h **** 
  29:../Libraries/AQ_Gyroscope/Gyroscope_MPU6000.h **** #define GYRO_CALIBRATION_TRESHOLD 10
  30:../Libraries/AQ_Gyroscope/Gyroscope_MPU6000.h **** 
  31:../Libraries/AQ_Gyroscope/Gyroscope_MPU6000.h **** void initializeGyro() {
 1325              		.loc 9 31 0
 1326              		.cfi_startproc
 1327              		@ args = 0, pretend = 0, frame = 0
 1328              		@ frame_needed = 0, uses_anonymous_args = 0
 1329              		@ link register save eliminated.
 1330              	.LVL95:
 1331              	.LBB159:
  32:../Libraries/AQ_Gyroscope/Gyroscope_MPU6000.h ****   float range = 2*1000.0;
  33:../Libraries/AQ_Gyroscope/Gyroscope_MPU6000.h ****   gyroScaleFactor = radians(range/65536.0);
 1332              		.loc 9 33 0
 1333 0000 024A     		ldr	r2, .L87
 1334 0002 034B     		ldr	r3, .L87+4
 1335 0004 1A60     		str	r2, [r3, #0]	@ float
 1336              	.LBE159:
  34:../Libraries/AQ_Gyroscope/Gyroscope_MPU6000.h **** 
  35:../Libraries/AQ_Gyroscope/Gyroscope_MPU6000.h ****   initializeMPU6000Sensors();
  36:../Libraries/AQ_Gyroscope/Gyroscope_MPU6000.h **** }
 1337              		.loc 9 36 0
 1338              	.LBB160:
  35:../Libraries/AQ_Gyroscope/Gyroscope_MPU6000.h ****   initializeMPU6000Sensors();
 1339              		.loc 9 35 0
 1340 0006 FFF7FEBF 		b	_Z24initializeMPU6000Sensorsv
 1341              	.LVL96:
 1342              	.L88:
 1343 000a 00BF     		.align	2
 1344              	.L87:
 1345 000c 58A00B3A 		.word	973840472
 1346 0010 00000000 		.word	.LANCHOR18
 1347              	.LBE160:
 1348              		.cfi_endproc
 1349              	.LFE149:
 1351              		.section	.text._Z17gyroUpdateHeadingv,"ax",%progbits
 1352              		.align	1
 1353              		.global	_Z17gyroUpdateHeadingv
 1354              		.thumb
 1355              		.thumb_func
 1357              	_Z17gyroUpdateHeadingv:
 1358              	.LFB150:
  37:../Libraries/AQ_Gyroscope/Gyroscope_MPU6000.h **** 
  38:../Libraries/AQ_Gyroscope/Gyroscope_MPU6000.h **** void gyroUpdateHeading()
  39:../Libraries/AQ_Gyroscope/Gyroscope_MPU6000.h **** {
 1359              		.loc 9 39 0
 1360              		.cfi_startproc
 1361              		@ args = 0, pretend = 0, frame = 0
 1362              		@ frame_needed = 0, uses_anonymous_args = 0
 1363 0000 08B5     		push	{r3, lr}
 1364              	.LCFI9:
 1365              		.cfi_def_cfa_offset 8
 1366              		.cfi_offset 3, -8
 1367              		.cfi_offset 14, -4
 1368              	.LBB161:
  40:../Libraries/AQ_Gyroscope/Gyroscope_MPU6000.h ****   long int currentTime = micros();
 1369              		.loc 9 40 0
 1370 0002 FFF7FEFF 		bl	_ZL6microsv
 1371              	.LVL97:
  41:../Libraries/AQ_Gyroscope/Gyroscope_MPU6000.h ****   if (gyroRate[ZAXIS] > (float)radians(1.0) || gyroRate[ZAXIS] < (float)radians(-1.0)) {
 1372              		.loc 9 41 0
 1373 0006 134B     		ldr	r3, .L93
 1374 0008 DFED137A 		flds	s15, .L93+4
 1375 000c 93ED027A 		flds	s14, [r3, #8]
 1376 0010 B4EEE77A 		fcmpes	s14, s15
 1377 0014 F1EE10FA 		fmstat
 1378 0018 06DC     		bgt	.L90
 1379              		.loc 9 41 0 is_stmt 0 discriminator 1
 1380 001a 9FED100A 		flds	s0, .L93+8
 1381 001e B4EEC07A 		fcmpes	s14, s0
 1382 0022 F1EE10FA 		fmstat
 1383 0026 11D5     		bpl	.L91
 1384              	.L90:
  42:../Libraries/AQ_Gyroscope/Gyroscope_MPU6000.h ****     gyroHeading += gyroRate[ZAXIS] * ((currentTime - gyroLastMesuredTime) / 1000000.0);
 1385              		.loc 9 42 0 is_stmt 1
 1386 0028 0D4A     		ldr	r2, .L93+12
 1387 002a 0E49     		ldr	r1, .L93+16
 1388 002c 1368     		ldr	r3, [r2, #0]
 1389 002e C21A     		subs	r2, r0, r3
 1390 0030 06EE902A 		fmsr	s13, r2	@ int
 1391 0034 9FED0C1A 		flds	s2, .L93+20
 1392 0038 F8EE660A 		fuitos	s1, s13
 1393 003c 91ED002A 		flds	s4, [r1, #0]
 1394 0040 C0EE811A 		fdivs	s3, s1, s2
 1395 0044 07EE212A 		fmacs	s4, s14, s3
 1396 0048 81ED002A 		fsts	s4, [r1, #0]
 1397              	.L91:
  43:../Libraries/AQ_Gyroscope/Gyroscope_MPU6000.h ****   }
  44:../Libraries/AQ_Gyroscope/Gyroscope_MPU6000.h ****   gyroLastMesuredTime = currentTime;
 1398              		.loc 9 44 0
 1399 004c 0449     		ldr	r1, .L93+12
 1400 004e 0860     		str	r0, [r1, #0]
 1401 0050 08BD     		pop	{r3, pc}
 1402              	.L94:
 1403 0052 00BF     		.align	2
 1404              	.L93:
 1405 0054 00000000 		.word	.LANCHOR19
 1406 0058 35FA8E3C 		.word	1016003125
 1407 005c 35FA8EBC 		.word	3163486773
 1408 0060 00000000 		.word	.LANCHOR21
 1409 0064 00000000 		.word	.LANCHOR20
 1410 0068 00247449 		.word	1232348160
 1411              	.LBE161:
 1412              		.cfi_endproc
 1413              	.LFE150:
 1415              		.section	.text._Z11measureGyrov,"ax",%progbits
 1416              		.align	1
 1417              		.global	_Z11measureGyrov
 1418              		.thumb
 1419              		.thumb_func
 1421              	_Z11measureGyrov:
 1422              	.LFB151:
  45:../Libraries/AQ_Gyroscope/Gyroscope_MPU6000.h **** }
  46:../Libraries/AQ_Gyroscope/Gyroscope_MPU6000.h **** 
  47:../Libraries/AQ_Gyroscope/Gyroscope_MPU6000.h **** void measureGyro() {
 1423              		.loc 9 47 0
 1424              		.cfi_startproc
 1425              		@ args = 0, pretend = 0, frame = 16
 1426              		@ frame_needed = 0, uses_anonymous_args = 0
 1427 0000 1FB5     		push	{r0, r1, r2, r3, r4, lr}
 1428              	.LCFI10:
 1429              		.cfi_def_cfa_offset 24
 1430              		.cfi_offset 0, -24
 1431              		.cfi_offset 1, -20
 1432              		.cfi_offset 2, -16
 1433              		.cfi_offset 3, -12
 1434              		.cfi_offset 4, -8
 1435              		.cfi_offset 14, -4
 1436              	.LBB162:
  48:../Libraries/AQ_Gyroscope/Gyroscope_MPU6000.h ****   readMPU6000Gyro();
 1437              		.loc 9 48 0
 1438 0002 FFF7FEFF 		bl	_Z15readMPU6000Gyrov
 1439              	.LVL98:
  49:../Libraries/AQ_Gyroscope/Gyroscope_MPU6000.h **** 
  50:../Libraries/AQ_Gyroscope/Gyroscope_MPU6000.h ****   int gyroADC[3];
  51:../Libraries/AQ_Gyroscope/Gyroscope_MPU6000.h ****   gyroADC[XAXIS] = (gyroRaw[XAXIS]=MPU6000.data.gyro.x)  - gyroZero[XAXIS];
 1440              		.loc 9 51 0
 1441 0006 194A     		ldr	r2, .L96
 1442 0008 1949     		ldr	r1, .L96+4
 1443 000a B2F90800 		ldrsh	r0, [r2, #8]
 1444 000e 0C68     		ldr	r4, [r1, #0]
 1445 0010 184B     		ldr	r3, .L96+8
 1446 0012 1860     		str	r0, [r3, #0]
 1447 0014 001B     		subs	r0, r0, r4
 1448 0016 06EE100A 		fmsr	s12, r0	@ int
  52:../Libraries/AQ_Gyroscope/Gyroscope_MPU6000.h ****   gyroADC[YAXIS] = gyroZero[YAXIS] - (gyroRaw[YAXIS]=MPU6000.data.gyro.y);
 1449              		.loc 9 52 0
 1450 001a 4C68     		ldr	r4, [r1, #4]
 1451 001c B2F90A00 		ldrsh	r0, [r2, #10]
  53:../Libraries/AQ_Gyroscope/Gyroscope_MPU6000.h ****   gyroADC[ZAXIS] = gyroZero[ZAXIS] - (gyroRaw[ZAXIS]=MPU6000.data.gyro.z);
 1452              		.loc 9 53 0
 1453 0020 8968     		ldr	r1, [r1, #8]
 1454 0022 B2F90C20 		ldrsh	r2, [r2, #12]
  52:../Libraries/AQ_Gyroscope/Gyroscope_MPU6000.h ****   gyroADC[YAXIS] = gyroZero[YAXIS] - (gyroRaw[YAXIS]=MPU6000.data.gyro.y);
 1455              		.loc 9 52 0
 1456 0026 5860     		str	r0, [r3, #4]
 1457 0028 201A     		subs	r0, r4, r0
 1458 002a 06EE900A 		fmsr	s13, r0	@ int
 1459              		.loc 9 53 0
 1460 002e 881A     		subs	r0, r1, r2
 1461              	.LVL99:
 1462 0030 9A60     		str	r2, [r3, #8]
 1463              	.LBB163:
  54:../Libraries/AQ_Gyroscope/Gyroscope_MPU6000.h **** 
  55:../Libraries/AQ_Gyroscope/Gyroscope_MPU6000.h ****   for (byte axis = 0; axis <= ZAXIS; axis++) {
  56:../Libraries/AQ_Gyroscope/Gyroscope_MPU6000.h ****     gyroRate[axis] = gyroADC[axis] * gyroScaleFactor;
 1464              		.loc 9 56 0
 1465 0032 02EE100A 		fmsr	s4, r0	@ int
 1466 0036 104B     		ldr	r3, .L96+12
 1467 0038 1049     		ldr	r1, .L96+16
 1468 003a D3ED007A 		flds	s15, [r3, #0]
 1469 003e B8EEC60A 		fsitos	s0, s12
 1470 0042 B8EEE61A 		fsitos	s2, s13
 1471 0046 B8EEC27A 		fsitos	s14, s4
 1472 004a 60EE270A 		fmuls	s1, s0, s15
 1473 004e 61EE271A 		fmuls	s3, s2, s15
 1474 0052 67EE272A 		fmuls	s5, s14, s15
 1475 0056 C1ED000A 		fsts	s1, [r1, #0]
 1476              	.LVL100:
 1477 005a C1ED011A 		fsts	s3, [r1, #4]
 1478              	.LVL101:
 1479 005e C1ED022A 		fsts	s5, [r1, #8]
 1480              	.LVL102:
 1481              	.LBE163:
 1482              	.LBE162:
  57:../Libraries/AQ_Gyroscope/Gyroscope_MPU6000.h ****   }
  58:../Libraries/AQ_Gyroscope/Gyroscope_MPU6000.h **** 
  59:../Libraries/AQ_Gyroscope/Gyroscope_MPU6000.h ****   gyroUpdateHeading();
  60:../Libraries/AQ_Gyroscope/Gyroscope_MPU6000.h **** }
 1483              		.loc 9 60 0
 1484 0062 04B0     		add	sp, sp, #16
 1485 0064 BDE81040 		pop	{r4, lr}
 1486              	.LBB164:
  59:../Libraries/AQ_Gyroscope/Gyroscope_MPU6000.h ****   gyroUpdateHeading();
 1487              		.loc 9 59 0
 1488 0068 FFF7FEBF 		b	_Z17gyroUpdateHeadingv
 1489              	.LVL103:
 1490              	.L97:
 1491              		.align	2
 1492              	.L96:
 1493 006c 00000000 		.word	.LANCHOR14
 1494 0070 00000000 		.word	.LANCHOR23
 1495 0074 00000000 		.word	.LANCHOR22
 1496 0078 00000000 		.word	.LANCHOR18
 1497 007c 00000000 		.word	.LANCHOR19
 1498              	.LBE164:
 1499              		.cfi_endproc
 1500              	.LFE151:
 1502              		.section	.text._Z14measureGyroSumv,"ax",%progbits
 1503              		.align	1
 1504              		.global	_Z14measureGyroSumv
 1505              		.thumb
 1506              		.thumb_func
 1508              	_Z14measureGyroSumv:
 1509              	.LFB152:
  61:../Libraries/AQ_Gyroscope/Gyroscope_MPU6000.h **** 
  62:../Libraries/AQ_Gyroscope/Gyroscope_MPU6000.h **** void measureGyroSum() {
 1510              		.loc 9 62 0
 1511              		.cfi_startproc
 1512              		@ args = 0, pretend = 0, frame = 0
 1513              		@ frame_needed = 0, uses_anonymous_args = 0
 1514 0000 10B5     		push	{r4, lr}
 1515              	.LCFI11:
 1516              		.cfi_def_cfa_offset 8
 1517              		.cfi_offset 4, -8
 1518              		.cfi_offset 14, -4
  63:../Libraries/AQ_Gyroscope/Gyroscope_MPU6000.h ****   readMPU6000Gyro();
 1519              		.loc 9 63 0
 1520 0002 FFF7FEFF 		bl	_Z15readMPU6000Gyrov
 1521              	.LVL104:
  64:../Libraries/AQ_Gyroscope/Gyroscope_MPU6000.h ****   gyroSample[XAXIS] += (gyroRaw[XAXIS]=MPU6000.data.gyro.x);
 1522              		.loc 9 64 0
 1523 0006 0D4B     		ldr	r3, .L99
 1524 0008 0D49     		ldr	r1, .L99+4
 1525 000a 1C68     		ldr	r4, [r3, #0]
 1526 000c 0D4A     		ldr	r2, .L99+8
 1527 000e B1F90800 		ldrsh	r0, [r1, #8]
 1528 0012 1060     		str	r0, [r2, #0]
 1529 0014 2018     		adds	r0, r4, r0
 1530 0016 1860     		str	r0, [r3, #0]
  65:../Libraries/AQ_Gyroscope/Gyroscope_MPU6000.h ****   gyroSample[YAXIS] += (gyroRaw[YAXIS]=MPU6000.data.gyro.y);
 1531              		.loc 9 65 0
 1532 0018 B1F90A00 		ldrsh	r0, [r1, #10]
  66:../Libraries/AQ_Gyroscope/Gyroscope_MPU6000.h ****   gyroSample[ZAXIS] += (gyroRaw[ZAXIS]=MPU6000.data.gyro.z);
 1533              		.loc 9 66 0
 1534 001c B1F90C10 		ldrsh	r1, [r1, #12]
  65:../Libraries/AQ_Gyroscope/Gyroscope_MPU6000.h ****   gyroSample[YAXIS] += (gyroRaw[YAXIS]=MPU6000.data.gyro.y);
 1535              		.loc 9 65 0
 1536 0020 5C68     		ldr	r4, [r3, #4]
 1537 0022 5060     		str	r0, [r2, #4]
 1538              		.loc 9 66 0
 1539 0024 9160     		str	r1, [r2, #8]
 1540 0026 9A68     		ldr	r2, [r3, #8]
  65:../Libraries/AQ_Gyroscope/Gyroscope_MPU6000.h ****   gyroSample[YAXIS] += (gyroRaw[YAXIS]=MPU6000.data.gyro.y);
 1541              		.loc 9 65 0
 1542 0028 2018     		adds	r0, r4, r0
 1543 002a 5860     		str	r0, [r3, #4]
 1544              		.loc 9 66 0
 1545 002c 5018     		adds	r0, r2, r1
 1546 002e 9860     		str	r0, [r3, #8]
  67:../Libraries/AQ_Gyroscope/Gyroscope_MPU6000.h **** 
  68:../Libraries/AQ_Gyroscope/Gyroscope_MPU6000.h ****   gyroSampleCount++;
 1547              		.loc 9 68 0
 1548 0030 054B     		ldr	r3, .L99+12
 1549 0032 1978     		ldrb	r1, [r3, #0]	@ zero_extendqisi2
 1550 0034 4A1C     		adds	r2, r1, #1
 1551 0036 1A70     		strb	r2, [r3, #0]
 1552 0038 10BD     		pop	{r4, pc}
 1553              	.L100:
 1554 003a 00BF     		.align	2
 1555              	.L99:
 1556 003c 00000000 		.word	.LANCHOR24
 1557 0040 00000000 		.word	.LANCHOR14
 1558 0044 00000000 		.word	.LANCHOR22
 1559 0048 00000000 		.word	.LANCHOR25
 1560              		.cfi_endproc
 1561              	.LFE152:
 1563              		.section	.text._Z16evaluateGyroRatev,"ax",%progbits
 1564              		.align	1
 1565              		.global	_Z16evaluateGyroRatev
 1566              		.thumb
 1567              		.thumb_func
 1569              	_Z16evaluateGyroRatev:
 1570              	.LFB153:
  69:../Libraries/AQ_Gyroscope/Gyroscope_MPU6000.h **** }
  70:../Libraries/AQ_Gyroscope/Gyroscope_MPU6000.h **** 
  71:../Libraries/AQ_Gyroscope/Gyroscope_MPU6000.h **** void evaluateGyroRate() {
 1571              		.loc 9 71 0
 1572              		.cfi_startproc
 1573              		@ args = 0, pretend = 0, frame = 16
 1574              		@ frame_needed = 0, uses_anonymous_args = 0
 1575 0000 30B5     		push	{r4, r5, lr}
 1576              	.LCFI12:
 1577              		.cfi_def_cfa_offset 12
 1578              		.cfi_offset 4, -12
 1579              		.cfi_offset 5, -8
 1580              		.cfi_offset 14, -4
 1581              	.LBB165:
  72:../Libraries/AQ_Gyroscope/Gyroscope_MPU6000.h ****   int gyroADC[3];
  73:../Libraries/AQ_Gyroscope/Gyroscope_MPU6000.h ****   gyroADC[XAXIS] = (gyroSample[XAXIS] / gyroSampleCount) - gyroZero[XAXIS];
 1582              		.loc 9 73 0
 1583 0002 1D4B     		ldr	r3, .L102
 1584 0004 1D48     		ldr	r0, .L102+4
 1585 0006 1C68     		ldr	r4, [r3, #0]
 1586 0008 0178     		ldrb	r1, [r0, #0]	@ zero_extendqisi2
 1587 000a 1D4A     		ldr	r2, .L102+8
 1588 000c 94FBF1F5 		sdiv	r5, r4, r1
 1589 0010 1468     		ldr	r4, [r2, #0]
 1590 0012 2D1B     		subs	r5, r5, r4
  74:../Libraries/AQ_Gyroscope/Gyroscope_MPU6000.h ****   gyroADC[YAXIS] = gyroZero[YAXIS] - (gyroSample[YAXIS] / gyroSampleCount);
 1591              		.loc 9 74 0
 1592 0014 5C68     		ldr	r4, [r3, #4]
  73:../Libraries/AQ_Gyroscope/Gyroscope_MPU6000.h ****   gyroADC[XAXIS] = (gyroSample[XAXIS] / gyroSampleCount) - gyroZero[XAXIS];
 1593              		.loc 9 73 0
 1594 0016 06EE105A 		fmsr	s12, r5	@ int
 1595              		.loc 9 74 0
 1596 001a 94FBF1F5 		sdiv	r5, r4, r1
 1597 001e 5468     		ldr	r4, [r2, #4]
  75:../Libraries/AQ_Gyroscope/Gyroscope_MPU6000.h ****   gyroADC[ZAXIS] = gyroZero[ZAXIS] - (gyroSample[ZAXIS] / gyroSampleCount);
 1598              		.loc 9 75 0
 1599 0020 9268     		ldr	r2, [r2, #8]
  74:../Libraries/AQ_Gyroscope/Gyroscope_MPU6000.h ****   gyroADC[YAXIS] = gyroZero[YAXIS] - (gyroSample[YAXIS] / gyroSampleCount);
 1600              		.loc 9 74 0
 1601 0022 641B     		subs	r4, r4, r5
 1602 0024 06EE904A 		fmsr	s13, r4	@ int
 1603              		.loc 9 75 0
 1604 0028 9C68     		ldr	r4, [r3, #8]
 1605 002a 94FBF1F1 		sdiv	r1, r4, r1
 1606 002e 511A     		subs	r1, r2, r1
  76:../Libraries/AQ_Gyroscope/Gyroscope_MPU6000.h **** 
  77:../Libraries/AQ_Gyroscope/Gyroscope_MPU6000.h ****   gyroSample[XAXIS] = 0;
 1607              		.loc 9 77 0
 1608 0030 0022     		movs	r2, #0
  78:../Libraries/AQ_Gyroscope/Gyroscope_MPU6000.h ****   gyroSample[YAXIS] = 0;
  79:../Libraries/AQ_Gyroscope/Gyroscope_MPU6000.h ****   gyroSample[ZAXIS] = 0;
  80:../Libraries/AQ_Gyroscope/Gyroscope_MPU6000.h ****   gyroSampleCount = 0;
 1609              		.loc 9 80 0
 1610 0032 0270     		strb	r2, [r0, #0]
 1611              	.LVL105:
 1612              	.LBB166:
  81:../Libraries/AQ_Gyroscope/Gyroscope_MPU6000.h **** 
  82:../Libraries/AQ_Gyroscope/Gyroscope_MPU6000.h ****   for (byte axis = 0; axis <= ZAXIS; axis++) {
  83:../Libraries/AQ_Gyroscope/Gyroscope_MPU6000.h ****     gyroRate[axis] = gyroADC[axis] * gyroScaleFactor;
 1613              		.loc 9 83 0
 1614 0034 02EE101A 		fmsr	s4, r1	@ int
 1615 0038 1248     		ldr	r0, .L102+12
 1616              	.LBE166:
  77:../Libraries/AQ_Gyroscope/Gyroscope_MPU6000.h ****   gyroSample[XAXIS] = 0;
 1617              		.loc 9 77 0
 1618 003a 1A60     		str	r2, [r3, #0]
 1619              	.LBB167:
 1620              		.loc 9 83 0
 1621 003c D0ED007A 		flds	s15, [r0, #0]
 1622 0040 B8EEC60A 		fsitos	s0, s12
 1623 0044 B8EEE61A 		fsitos	s2, s13
 1624 0048 B8EEC27A 		fsitos	s14, s4
 1625              	.LBE167:
  78:../Libraries/AQ_Gyroscope/Gyroscope_MPU6000.h ****   gyroSample[YAXIS] = 0;
 1626              		.loc 9 78 0
 1627 004c 5A60     		str	r2, [r3, #4]
  79:../Libraries/AQ_Gyroscope/Gyroscope_MPU6000.h ****   gyroSample[ZAXIS] = 0;
 1628              		.loc 9 79 0
 1629 004e 9A60     		str	r2, [r3, #8]
 1630              	.LBB168:
 1631              		.loc 9 83 0
 1632 0050 60EE270A 		fmuls	s1, s0, s15
 1633 0054 0C4B     		ldr	r3, .L102+16
 1634 0056 61EE271A 		fmuls	s3, s2, s15
 1635 005a 67EE272A 		fmuls	s5, s14, s15
 1636              	.LBE168:
 1637              	.LBE165:
  71:../Libraries/AQ_Gyroscope/Gyroscope_MPU6000.h **** void evaluateGyroRate() {
 1638              		.loc 9 71 0
 1639 005e 85B0     		sub	sp, sp, #20
 1640              	.LCFI13:
 1641              		.cfi_def_cfa_offset 32
 1642              	.LBB170:
 1643              	.LBB169:
 1644              		.loc 9 83 0
 1645 0060 C3ED000A 		fsts	s1, [r3, #0]
 1646              	.LVL106:
 1647 0064 C3ED011A 		fsts	s3, [r3, #4]
 1648              	.LVL107:
 1649 0068 C3ED022A 		fsts	s5, [r3, #8]
 1650              	.LVL108:
 1651              	.LBE169:
 1652              	.LBE170:
  84:../Libraries/AQ_Gyroscope/Gyroscope_MPU6000.h ****   }
  85:../Libraries/AQ_Gyroscope/Gyroscope_MPU6000.h **** 
  86:../Libraries/AQ_Gyroscope/Gyroscope_MPU6000.h ****   gyroUpdateHeading();
  87:../Libraries/AQ_Gyroscope/Gyroscope_MPU6000.h **** }
 1653              		.loc 9 87 0
 1654 006c 05B0     		add	sp, sp, #20
 1655 006e BDE83040 		pop	{r4, r5, lr}
 1656              	.LBB171:
  86:../Libraries/AQ_Gyroscope/Gyroscope_MPU6000.h ****   gyroUpdateHeading();
 1657              		.loc 9 86 0
 1658 0072 FFF7FEBF 		b	_Z17gyroUpdateHeadingv
 1659              	.LVL109:
 1660              	.L103:
 1661 0076 00BF     		.align	2
 1662              	.L102:
 1663 0078 00000000 		.word	.LANCHOR24
 1664 007c 00000000 		.word	.LANCHOR25
 1665 0080 00000000 		.word	.LANCHOR23
 1666 0084 00000000 		.word	.LANCHOR18
 1667 0088 00000000 		.word	.LANCHOR19
 1668              	.LBE171:
 1669              		.cfi_endproc
 1670              	.LFE153:
 1672              		.section	.text._Z13calibrateGyrov,"ax",%progbits
 1673              		.align	1
 1674              		.global	_Z13calibrateGyrov
 1675              		.thumb
 1676              		.thumb_func
 1678              	_Z13calibrateGyrov:
 1679              	.LFB154:
  88:../Libraries/AQ_Gyroscope/Gyroscope_MPU6000.h **** 
  89:../Libraries/AQ_Gyroscope/Gyroscope_MPU6000.h **** 
  90:../Libraries/AQ_Gyroscope/Gyroscope_MPU6000.h **** boolean calibrateGyro() {
 1680              		.loc 9 90 0
 1681              		.cfi_startproc
 1682              		@ args = 0, pretend = 0, frame = 200
 1683              		@ frame_needed = 0, uses_anonymous_args = 0
 1684 0000 30B5     		push	{r4, r5, lr}
 1685              	.LCFI14:
 1686              		.cfi_def_cfa_offset 12
 1687              		.cfi_offset 4, -12
 1688              		.cfi_offset 5, -8
 1689              		.cfi_offset 14, -4
 1690 0002 B3B0     		sub	sp, sp, #204
 1691              	.LCFI15:
 1692              		.cfi_def_cfa_offset 216
 1693              	.LBB172:
  91:../Libraries/AQ_Gyroscope/Gyroscope_MPU6000.h ****   
  92:../Libraries/AQ_Gyroscope/Gyroscope_MPU6000.h ****   int findZero[FINDZERO];
  93:../Libraries/AQ_Gyroscope/Gyroscope_MPU6000.h ****   int diff = 0; 
 1694              		.loc 9 93 0
 1695 0004 0024     		movs	r4, #0
 1696 0006 0094     		str	r4, [sp, #0]
 1697              	.LVL110:
 1698              	.L105:
 1699              	.LBE172:
  90:../Libraries/AQ_Gyroscope/Gyroscope_MPU6000.h **** boolean calibrateGyro() {
 1700              		.loc 9 90 0 discriminator 1
 1701 0008 0025     		movs	r5, #0
 1702              	.LVL111:
 1703              	.L109:
 1704              	.LBB177:
 1705              	.LBB173:
 1706              	.LBB174:
 1707              	.LBB175:
  94:../Libraries/AQ_Gyroscope/Gyroscope_MPU6000.h ****   for (byte axis = 0; axis < 3; axis++) {
  95:../Libraries/AQ_Gyroscope/Gyroscope_MPU6000.h ****     for (int i=0; i<FINDZERO; i++) {
  96:../Libraries/AQ_Gyroscope/Gyroscope_MPU6000.h ****       readMPU6000Sensors();
 1708              		.loc 9 96 0
 1709 000a FFF7FEFF 		bl	_Z18readMPU6000Sensorsv
 1710              	.LVL112:
  97:../Libraries/AQ_Gyroscope/Gyroscope_MPU6000.h ****       if(axis == XAXIS) {
 1711              		.loc 9 97 0
 1712 000e 14F0FF01 		ands	r1, r4, #255
 1713 0012 01AB     		add	r3, sp, #4
 1714 0014 124A     		ldr	r2, .L115
 1715 0016 02D1     		bne	.L106
  98:../Libraries/AQ_Gyroscope/Gyroscope_MPU6000.h ****     	findZero[i] = MPU6000.data.gyro.x;
 1716              		.loc 9 98 0
 1717 0018 B2F90820 		ldrsh	r2, [r2, #8]
 1718 001c 05E0     		b	.L114
 1719              	.L106:
  99:../Libraries/AQ_Gyroscope/Gyroscope_MPU6000.h ****       } 
 100:../Libraries/AQ_Gyroscope/Gyroscope_MPU6000.h **** 	  else if(axis == YAXIS) {
 1720              		.loc 9 100 0
 1721 001e 0129     		cmp	r1, #1
 101:../Libraries/AQ_Gyroscope/Gyroscope_MPU6000.h ****     	findZero[i] = MPU6000.data.gyro.y;
 1722              		.loc 9 101 0
 1723 0020 0CBF     		ite	eq
 1724 0022 B2F90A20 		ldrsheq	r2, [r2, #10]
 102:../Libraries/AQ_Gyroscope/Gyroscope_MPU6000.h ****       } 
 103:../Libraries/AQ_Gyroscope/Gyroscope_MPU6000.h **** 	  else {
 104:../Libraries/AQ_Gyroscope/Gyroscope_MPU6000.h ****     	findZero[i] = MPU6000.data.gyro.z;
 1725              		.loc 9 104 0
 1726 0026 B2F90C20 		ldrshne	r2, [r2, #12]
 1727              	.L114:
 1728 002a 5A51     		str	r2, [r3, r5]
 105:../Libraries/AQ_Gyroscope/Gyroscope_MPU6000.h ****       }
 106:../Libraries/AQ_Gyroscope/Gyroscope_MPU6000.h ****       delay(10);
 1729              		.loc 9 106 0
 1730 002c 0A20     		movs	r0, #10
 1731 002e 0435     		adds	r5, r5, #4
 1732 0030 FFF7FEFF 		bl	_Z5delaym
 1733              	.LVL113:
  95:../Libraries/AQ_Gyroscope/Gyroscope_MPU6000.h ****     for (int i=0; i<FINDZERO; i++) {
 1734              		.loc 9 95 0
 1735 0034 C42D     		cmp	r5, #196
 1736 0036 E8D1     		bne	.L109
 1737              	.LBE175:
 107:../Libraries/AQ_Gyroscope/Gyroscope_MPU6000.h ****     }
 108:../Libraries/AQ_Gyroscope/Gyroscope_MPU6000.h ****     int tmp = findMedianIntWithDiff(findZero, FINDZERO, &diff);
 1738              		.loc 9 108 0
 1739 0038 3121     		movs	r1, #49
 1740 003a 01A8     		add	r0, sp, #4
 1741 003c 6A46     		mov	r2, sp
 1742 003e FFF7FEFF 		bl	_Z21findMedianIntWithDiffPiiS_
 1743              	.LVL114:
 109:../Libraries/AQ_Gyroscope/Gyroscope_MPU6000.h **** 	if (diff <= GYRO_CALIBRATION_TRESHOLD) { 
 1744              		.loc 9 109 0
 1745 0042 0099     		ldr	r1, [sp, #0]
 1746 0044 0A29     		cmp	r1, #10
 1747 0046 07DC     		bgt	.L111
 110:../Libraries/AQ_Gyroscope/Gyroscope_MPU6000.h **** 	  gyroZero[axis] = tmp;
 1748              		.loc 9 110 0
 1749 0048 064B     		ldr	r3, .L115+4
 1750 004a 43F82400 		str	r0, [r3, r4, lsl #2]
 1751 004e 0134     		adds	r4, r4, #1
 1752              	.LBE174:
  94:../Libraries/AQ_Gyroscope/Gyroscope_MPU6000.h ****   for (byte axis = 0; axis < 3; axis++) {
 1753              		.loc 9 94 0
 1754 0050 032C     		cmp	r4, #3
 1755 0052 D9D1     		bne	.L105
 1756              	.L112:
 111:../Libraries/AQ_Gyroscope/Gyroscope_MPU6000.h **** 	} 
 112:../Libraries/AQ_Gyroscope/Gyroscope_MPU6000.h **** 	else {
 113:../Libraries/AQ_Gyroscope/Gyroscope_MPU6000.h **** 		return false; //Calibration failed.
 114:../Libraries/AQ_Gyroscope/Gyroscope_MPU6000.h **** 	}
 115:../Libraries/AQ_Gyroscope/Gyroscope_MPU6000.h ****   }
 116:../Libraries/AQ_Gyroscope/Gyroscope_MPU6000.h ****   return true;
 1757              		.loc 9 116 0
 1758 0054 0120     		movs	r0, #1
 1759              	.LVL115:
 1760 0056 00E0     		b	.L110
 1761              	.LVL116:
 1762              	.L111:
 1763              	.LBB176:
 113:../Libraries/AQ_Gyroscope/Gyroscope_MPU6000.h **** 		return false; //Calibration failed.
 1764              		.loc 9 113 0
 1765 0058 0020     		movs	r0, #0
 1766              	.LVL117:
 1767              	.L110:
 1768              	.LBE176:
 1769              	.LBE173:
 1770              	.LBE177:
 117:../Libraries/AQ_Gyroscope/Gyroscope_MPU6000.h **** }
 1771              		.loc 9 117 0
 1772 005a 33B0     		add	sp, sp, #204
 1773 005c 30BD     		pop	{r4, r5, pc}
 1774              	.L116:
 1775 005e 00BF     		.align	2
 1776              	.L115:
 1777 0060 00000000 		.word	.LANCHOR14
 1778 0064 00000000 		.word	.LANCHOR23
 1779              		.cfi_endproc
 1780              	.LFE154:
 1782              		.section	.text._Z15initializeAccelv,"ax",%progbits
 1783              		.align	1
 1784              		.global	_Z15initializeAccelv
 1785              		.thumb
 1786              		.thumb_func
 1788              	_Z15initializeAccelv:
 1789              	.LFB155:
 1790              		.file 10 "../Libraries/AQ_Accelerometer/Accelerometer_MPU6000.h"
   1:../Libraries/AQ_Accelerometer/Accelerometer_MPU6000.h **** /*
   2:../Libraries/AQ_Accelerometer/Accelerometer_MPU6000.h ****   AeroQuad v3.0 - May 2011
   3:../Libraries/AQ_Accelerometer/Accelerometer_MPU6000.h ****   www.AeroQuad.com
   4:../Libraries/AQ_Accelerometer/Accelerometer_MPU6000.h ****   Copyright (c) 2011 Ted Carancho.  All rights reserved.
   5:../Libraries/AQ_Accelerometer/Accelerometer_MPU6000.h ****   An Open Source Arduino based multicopter.
   6:../Libraries/AQ_Accelerometer/Accelerometer_MPU6000.h **** 
   7:../Libraries/AQ_Accelerometer/Accelerometer_MPU6000.h ****   This program is free software: you can redistribute it and/or modify
   8:../Libraries/AQ_Accelerometer/Accelerometer_MPU6000.h ****   it under the terms of the GNU General Public License as published by
   9:../Libraries/AQ_Accelerometer/Accelerometer_MPU6000.h ****   the Free Software Foundation, either version 3 of the License, or
  10:../Libraries/AQ_Accelerometer/Accelerometer_MPU6000.h ****   (at your option) any later version.
  11:../Libraries/AQ_Accelerometer/Accelerometer_MPU6000.h **** 
  12:../Libraries/AQ_Accelerometer/Accelerometer_MPU6000.h ****   This program is distributed in the hope that it will be useful,
  13:../Libraries/AQ_Accelerometer/Accelerometer_MPU6000.h ****   but WITHOUT ANY WARRANTY; without even the implied warranty of
  14:../Libraries/AQ_Accelerometer/Accelerometer_MPU6000.h ****   MERCHANTABILITY or FITNESS FOR A PARTICULAR PURPOSE. See the
  15:../Libraries/AQ_Accelerometer/Accelerometer_MPU6000.h ****   GNU General Public License for more details.
  16:../Libraries/AQ_Accelerometer/Accelerometer_MPU6000.h **** 
  17:../Libraries/AQ_Accelerometer/Accelerometer_MPU6000.h ****   You should have received a copy of the GNU General Public License
  18:../Libraries/AQ_Accelerometer/Accelerometer_MPU6000.h ****   along with this program. If not, see <http://www.gnu.org/licenses/>.
  19:../Libraries/AQ_Accelerometer/Accelerometer_MPU6000.h **** */
  20:../Libraries/AQ_Accelerometer/Accelerometer_MPU6000.h **** 
  21:../Libraries/AQ_Accelerometer/Accelerometer_MPU6000.h **** #ifndef _AEROQUAD_ACCELEROMETER_MPU6000_COMMON_H_
  22:../Libraries/AQ_Accelerometer/Accelerometer_MPU6000.h **** #define _AEROQUAD_ACCELEROMETER_MPU6000_COMMON_H_
  23:../Libraries/AQ_Accelerometer/Accelerometer_MPU6000.h **** 
  24:../Libraries/AQ_Accelerometer/Accelerometer_MPU6000.h **** #include <Platform_MPU6000.h>
  25:../Libraries/AQ_Accelerometer/Accelerometer_MPU6000.h **** #include <Accelerometer.h>
  26:../Libraries/AQ_Accelerometer/Accelerometer_MPU6000.h **** 
  27:../Libraries/AQ_Accelerometer/Accelerometer_MPU6000.h **** void initializeAccel() {
 1791              		.loc 10 27 0
 1792              		.cfi_startproc
 1793              		@ args = 0, pretend = 0, frame = 0
 1794              		@ frame_needed = 0, uses_anonymous_args = 0
 1795              		@ link register save eliminated.
  28:../Libraries/AQ_Accelerometer/Accelerometer_MPU6000.h ****   initializeMPU6000Sensors();
  29:../Libraries/AQ_Accelerometer/Accelerometer_MPU6000.h **** }
 1796              		.loc 10 29 0
  28:../Libraries/AQ_Accelerometer/Accelerometer_MPU6000.h ****   initializeMPU6000Sensors();
 1797              		.loc 10 28 0
 1798 0000 FFF7FEBF 		b	_Z24initializeMPU6000Sensorsv
 1799              	.LVL118:
 1800              		.cfi_endproc
 1801              	.LFE155:
 1803              		.section	.text._Z12measureAccelv,"ax",%progbits
 1804              		.align	1
 1805              		.global	_Z12measureAccelv
 1806              		.thumb
 1807              		.thumb_func
 1809              	_Z12measureAccelv:
 1810              	.LFB156:
  30:../Libraries/AQ_Accelerometer/Accelerometer_MPU6000.h **** 
  31:../Libraries/AQ_Accelerometer/Accelerometer_MPU6000.h **** 
  32:../Libraries/AQ_Accelerometer/Accelerometer_MPU6000.h **** void measureAccel() {
 1811              		.loc 10 32 0
 1812              		.cfi_startproc
 1813              		@ args = 0, pretend = 0, frame = 0
 1814              		@ frame_needed = 0, uses_anonymous_args = 0
 1815 0000 10B5     		push	{r4, lr}
 1816              	.LCFI16:
 1817              		.cfi_def_cfa_offset 8
 1818              		.cfi_offset 4, -8
 1819              		.cfi_offset 14, -4
  33:../Libraries/AQ_Accelerometer/Accelerometer_MPU6000.h ****   readMPU6000Accel();
 1820              		.loc 10 33 0
 1821 0002 FFF7FEFF 		bl	_Z16readMPU6000Accelv
 1822              	.LVL119:
  34:../Libraries/AQ_Accelerometer/Accelerometer_MPU6000.h **** 
  35:../Libraries/AQ_Accelerometer/Accelerometer_MPU6000.h ****   meterPerSecSec[XAXIS] = MPU6000.data.accel.x * accelScaleFactor[XAXIS] + runTimeAccelBias[XAXIS];
 1823              		.loc 10 35 0
 1824 0006 1748     		ldr	r0, .L119
 1825 0008 1749     		ldr	r1, .L119+4
 1826 000a B0F90020 		ldrsh	r2, [r0, #0]
  36:../Libraries/AQ_Accelerometer/Accelerometer_MPU6000.h ****   meterPerSecSec[YAXIS] = MPU6000.data.accel.y * accelScaleFactor[YAXIS] + runTimeAccelBias[YAXIS];
 1827              		.loc 10 36 0
 1828 000e B0F90240 		ldrsh	r4, [r0, #2]
  37:../Libraries/AQ_Accelerometer/Accelerometer_MPU6000.h ****   meterPerSecSec[ZAXIS] = MPU6000.data.accel.z * accelScaleFactor[ZAXIS] + runTimeAccelBias[ZAXIS];
 1829              		.loc 10 37 0
 1830 0012 B0F90400 		ldrsh	r0, [r0, #4]
  35:../Libraries/AQ_Accelerometer/Accelerometer_MPU6000.h ****   meterPerSecSec[XAXIS] = MPU6000.data.accel.x * accelScaleFactor[XAXIS] + runTimeAccelBias[XAXIS];
 1831              		.loc 10 35 0
 1832 0016 154B     		ldr	r3, .L119+8
 1833 0018 06EE902A 		fmsr	s13, r2	@ int
  36:../Libraries/AQ_Accelerometer/Accelerometer_MPU6000.h ****   meterPerSecSec[YAXIS] = MPU6000.data.accel.y * accelScaleFactor[YAXIS] + runTimeAccelBias[YAXIS];
 1834              		.loc 10 36 0
 1835 001c 00EE904A 		fmsr	s1, r4	@ int
  35:../Libraries/AQ_Accelerometer/Accelerometer_MPU6000.h ****   meterPerSecSec[XAXIS] = MPU6000.data.accel.x * accelScaleFactor[XAXIS] + runTimeAccelBias[XAXIS];
 1836              		.loc 10 35 0
 1837 0020 134A     		ldr	r2, .L119+12
 1838              		.loc 10 37 0
 1839 0022 02EE900A 		fmsr	s5, r0	@ int
  35:../Libraries/AQ_Accelerometer/Accelerometer_MPU6000.h ****   meterPerSecSec[XAXIS] = MPU6000.data.accel.x * accelScaleFactor[XAXIS] + runTimeAccelBias[XAXIS];
 1840              		.loc 10 35 0
 1841 0026 B8EEE60A 		fsitos	s0, s13
 1842 002a 91ED007A 		flds	s14, [r1, #0]
 1843 002e D2ED007A 		flds	s15, [r2, #0]
  36:../Libraries/AQ_Accelerometer/Accelerometer_MPU6000.h ****   meterPerSecSec[YAXIS] = MPU6000.data.accel.y * accelScaleFactor[YAXIS] + runTimeAccelBias[YAXIS];
 1844              		.loc 10 36 0
 1845 0032 B8EEE01A 		fsitos	s2, s1
 1846 0036 D1ED011A 		flds	s3, [r1, #4]
 1847 003a 92ED012A 		flds	s4, [r2, #4]
 1848              		.loc 10 37 0
 1849 003e B8EEE23A 		fsitos	s6, s5
 1850 0042 D1ED023A 		flds	s7, [r1, #8]
 1851 0046 92ED024A 		flds	s8, [r2, #8]
  35:../Libraries/AQ_Accelerometer/Accelerometer_MPU6000.h ****   meterPerSecSec[XAXIS] = MPU6000.data.accel.x * accelScaleFactor[XAXIS] + runTimeAccelBias[XAXIS];
 1852              		.loc 10 35 0
 1853 004a 40EE077A 		fmacs	s15, s0, s14
  36:../Libraries/AQ_Accelerometer/Accelerometer_MPU6000.h ****   meterPerSecSec[YAXIS] = MPU6000.data.accel.y * accelScaleFactor[YAXIS] + runTimeAccelBias[YAXIS];
 1854              		.loc 10 36 0
 1855 004e 01EE212A 		fmacs	s4, s2, s3
 1856              		.loc 10 37 0
 1857 0052 03EE234A 		fmacs	s8, s6, s7
  35:../Libraries/AQ_Accelerometer/Accelerometer_MPU6000.h ****   meterPerSecSec[XAXIS] = MPU6000.data.accel.x * accelScaleFactor[XAXIS] + runTimeAccelBias[XAXIS];
 1858              		.loc 10 35 0
 1859 0056 C3ED007A 		fsts	s15, [r3, #0]
  36:../Libraries/AQ_Accelerometer/Accelerometer_MPU6000.h ****   meterPerSecSec[YAXIS] = MPU6000.data.accel.y * accelScaleFactor[YAXIS] + runTimeAccelBias[YAXIS];
 1860              		.loc 10 36 0
 1861 005a 83ED012A 		fsts	s4, [r3, #4]
 1862              		.loc 10 37 0
 1863 005e 83ED024A 		fsts	s8, [r3, #8]
 1864 0062 10BD     		pop	{r4, pc}
 1865              	.L120:
 1866              		.align	2
 1867              	.L119:
 1868 0064 00000000 		.word	.LANCHOR14
 1869 0068 00000000 		.word	.LANCHOR27
 1870 006c 00000000 		.word	.LANCHOR26
 1871 0070 00000000 		.word	.LANCHOR28
 1872              		.cfi_endproc
 1873              	.LFE156:
 1875              		.section	.text._Z15measureAccelSumv,"ax",%progbits
 1876              		.align	1
 1877              		.global	_Z15measureAccelSumv
 1878              		.thumb
 1879              		.thumb_func
 1881              	_Z15measureAccelSumv:
 1882              	.LFB157:
  38:../Libraries/AQ_Accelerometer/Accelerometer_MPU6000.h **** }
  39:../Libraries/AQ_Accelerometer/Accelerometer_MPU6000.h **** 
  40:../Libraries/AQ_Accelerometer/Accelerometer_MPU6000.h **** void measureAccelSum() {
 1883              		.loc 10 40 0
 1884              		.cfi_startproc
 1885              		@ args = 0, pretend = 0, frame = 0
 1886              		@ frame_needed = 0, uses_anonymous_args = 0
 1887 0000 08B5     		push	{r3, lr}
 1888              	.LCFI17:
 1889              		.cfi_def_cfa_offset 8
 1890              		.cfi_offset 3, -8
 1891              		.cfi_offset 14, -4
  41:../Libraries/AQ_Accelerometer/Accelerometer_MPU6000.h ****   readMPU6000Accel();
 1892              		.loc 10 41 0
 1893 0002 FFF7FEFF 		bl	_Z16readMPU6000Accelv
 1894              	.LVL120:
  42:../Libraries/AQ_Accelerometer/Accelerometer_MPU6000.h ****   accelSample[XAXIS] += MPU6000.data.accel.x;
 1895              		.loc 10 42 0
 1896 0006 0B4B     		ldr	r3, .L122
 1897 0008 0B4A     		ldr	r2, .L122+4
 1898 000a 1968     		ldr	r1, [r3, #0]
 1899 000c B2F90000 		ldrsh	r0, [r2, #0]
 1900 0010 0818     		adds	r0, r1, r0
 1901 0012 1860     		str	r0, [r3, #0]
  43:../Libraries/AQ_Accelerometer/Accelerometer_MPU6000.h ****   accelSample[YAXIS] += MPU6000.data.accel.y;
 1902              		.loc 10 43 0
 1903 0014 5968     		ldr	r1, [r3, #4]
 1904 0016 B2F90200 		ldrsh	r0, [r2, #2]
 1905 001a 0818     		adds	r0, r1, r0
  44:../Libraries/AQ_Accelerometer/Accelerometer_MPU6000.h ****   accelSample[ZAXIS] += MPU6000.data.accel.z;
 1906              		.loc 10 44 0
 1907 001c B2F90410 		ldrsh	r1, [r2, #4]
 1908 0020 9A68     		ldr	r2, [r3, #8]
  43:../Libraries/AQ_Accelerometer/Accelerometer_MPU6000.h ****   accelSample[YAXIS] += MPU6000.data.accel.y;
 1909              		.loc 10 43 0
 1910 0022 5860     		str	r0, [r3, #4]
 1911              		.loc 10 44 0
 1912 0024 5018     		adds	r0, r2, r1
 1913 0026 9860     		str	r0, [r3, #8]
  45:../Libraries/AQ_Accelerometer/Accelerometer_MPU6000.h **** 
  46:../Libraries/AQ_Accelerometer/Accelerometer_MPU6000.h ****   accelSampleCount++;
 1914              		.loc 10 46 0
 1915 0028 044B     		ldr	r3, .L122+8
 1916 002a 1978     		ldrb	r1, [r3, #0]	@ zero_extendqisi2
 1917 002c 4A1C     		adds	r2, r1, #1
 1918 002e 1A70     		strb	r2, [r3, #0]
 1919 0030 08BD     		pop	{r3, pc}
 1920              	.L123:
 1921 0032 00BF     		.align	2
 1922              	.L122:
 1923 0034 00000000 		.word	.LANCHOR29
 1924 0038 00000000 		.word	.LANCHOR14
 1925 003c 00000000 		.word	.LANCHOR30
 1926              		.cfi_endproc
 1927              	.LFE157:
 1929              		.section	.text._Z20evaluateMetersPerSecv,"ax",%progbits
 1930              		.align	1
 1931              		.global	_Z20evaluateMetersPerSecv
 1932              		.thumb
 1933              		.thumb_func
 1935              	_Z20evaluateMetersPerSecv:
 1936              	.LFB158:
  47:../Libraries/AQ_Accelerometer/Accelerometer_MPU6000.h **** }
  48:../Libraries/AQ_Accelerometer/Accelerometer_MPU6000.h **** 
  49:../Libraries/AQ_Accelerometer/Accelerometer_MPU6000.h **** void evaluateMetersPerSec() {
 1937              		.loc 10 49 0
 1938              		.cfi_startproc
 1939              		@ args = 0, pretend = 0, frame = 0
 1940              		@ frame_needed = 0, uses_anonymous_args = 0
 1941              	.LVL121:
 1942 0000 10B5     		push	{r4, lr}
 1943              	.LCFI18:
 1944              		.cfi_def_cfa_offset 8
 1945              		.cfi_offset 4, -8
 1946              		.cfi_offset 14, -4
 1947              	.LBB178:
 1948              	.LBB179:
  50:../Libraries/AQ_Accelerometer/Accelerometer_MPU6000.h ****   for (byte axis = XAXIS; axis <= ZAXIS; axis++) {
  51:../Libraries/AQ_Accelerometer/Accelerometer_MPU6000.h ****     meterPerSecSec[axis] = (accelSample[axis] / accelSampleCount) * accelScaleFactor[axis] + runTim
 1949              		.loc 10 51 0
 1950 0002 104B     		ldr	r3, .L127
 1951 0004 1C78     		ldrb	r4, [r3, #0]	@ zero_extendqisi2
 1952 0006 0023     		movs	r3, #0
 1953              	.LVL122:
 1954              	.L125:
 1955              		.loc 10 51 0 is_stmt 0 discriminator 2
 1956 0008 0F49     		ldr	r1, .L127+4
  49:../Libraries/AQ_Accelerometer/Accelerometer_MPU6000.h **** void evaluateMetersPerSec() {
 1957              		.loc 10 49 0 is_stmt 1 discriminator 2
 1958 000a 1048     		ldr	r0, .L127+8
 1959              		.loc 10 51 0 discriminator 2
 1960 000c 5A58     		ldr	r2, [r3, r1]
 1961 000e 92FBF4F2 		sdiv	r2, r2, r4
 1962 0012 07EE902A 		fmsr	s15, r2	@ int
  49:../Libraries/AQ_Accelerometer/Accelerometer_MPU6000.h **** void evaluateMetersPerSec() {
 1963              		.loc 10 49 0 discriminator 2
 1964 0016 0E4A     		ldr	r2, .L127+12
 1965 0018 D218     		adds	r2, r2, r3
 1966              		.loc 10 51 0 discriminator 2
 1967 001a 92ED007A 		flds	s14, [r2, #0]
  49:../Libraries/AQ_Accelerometer/Accelerometer_MPU6000.h **** void evaluateMetersPerSec() {
 1968              		.loc 10 49 0 discriminator 2
 1969 001e 0D4A     		ldr	r2, .L127+16
 1970 0020 D218     		adds	r2, r2, r3
 1971              		.loc 10 51 0 discriminator 2
 1972 0022 F8EEE76A 		fsitos	s13, s15
 1973 0026 92ED000A 		flds	s0, [r2, #0]
 1974 002a 06EE870A 		fmacs	s0, s13, s14
  49:../Libraries/AQ_Accelerometer/Accelerometer_MPU6000.h **** void evaluateMetersPerSec() {
 1975              		.loc 10 49 0 discriminator 2
 1976 002e C018     		adds	r0, r0, r3
 1977              		.loc 10 51 0 discriminator 2
 1978 0030 80ED000A 		fsts	s0, [r0, #0]
  52:../Libraries/AQ_Accelerometer/Accelerometer_MPU6000.h ****   	accelSample[axis] = 0;
 1979              		.loc 10 52 0 discriminator 2
 1980 0034 0020     		movs	r0, #0
 1981 0036 5850     		str	r0, [r3, r1]
 1982 0038 0433     		adds	r3, r3, #4
  50:../Libraries/AQ_Accelerometer/Accelerometer_MPU6000.h ****   for (byte axis = XAXIS; axis <= ZAXIS; axis++) {
 1983              		.loc 10 50 0 discriminator 2
 1984 003a 0C2B     		cmp	r3, #12
 1985 003c E4D1     		bne	.L125
 1986              	.LBE179:
  53:../Libraries/AQ_Accelerometer/Accelerometer_MPU6000.h ****   }
  54:../Libraries/AQ_Accelerometer/Accelerometer_MPU6000.h ****   accelSampleCount = 0;
 1987              		.loc 10 54 0
 1988 003e 0149     		ldr	r1, .L127
 1989 0040 0870     		strb	r0, [r1, #0]
 1990 0042 10BD     		pop	{r4, pc}
 1991              	.L128:
 1992              		.align	2
 1993              	.L127:
 1994 0044 00000000 		.word	.LANCHOR30
 1995 0048 00000000 		.word	.LANCHOR29
 1996 004c 00000000 		.word	.LANCHOR26
 1997 0050 00000000 		.word	.LANCHOR27
 1998 0054 00000000 		.word	.LANCHOR28
 1999              	.LBE178:
 2000              		.cfi_endproc
 2001              	.LFE158:
 2003              		.section	.text._Z16computeAccelBiasv,"ax",%progbits
 2004              		.align	1
 2005              		.global	_Z16computeAccelBiasv
 2006              		.thumb
 2007              		.thumb_func
 2009              	_Z16computeAccelBiasv:
 2010              	.LFB159:
  55:../Libraries/AQ_Accelerometer/Accelerometer_MPU6000.h **** }
  56:../Libraries/AQ_Accelerometer/Accelerometer_MPU6000.h **** 
  57:../Libraries/AQ_Accelerometer/Accelerometer_MPU6000.h **** void computeAccelBias() {
 2011              		.loc 10 57 0
 2012              		.cfi_startproc
 2013              		@ args = 0, pretend = 0, frame = 0
 2014              		@ frame_needed = 0, uses_anonymous_args = 0
 2015              	.LVL123:
 2016 0000 10B5     		push	{r4, lr}
 2017              	.LCFI19:
 2018              		.cfi_def_cfa_offset 8
 2019              		.cfi_offset 4, -8
 2020              		.cfi_offset 14, -4
 2021              	.LBB180:
 2022              	.LBB181:
  58:../Libraries/AQ_Accelerometer/Accelerometer_MPU6000.h ****   for (int samples = 0; samples < SAMPLECOUNT; samples++) {
 2023              		.loc 10 58 0
 2024 0002 0024     		movs	r4, #0
 2025              	.LVL124:
 2026              	.L130:
 2027              		.loc 10 58 0 is_stmt 0 discriminator 1
 2028 0004 B4F5C87F 		cmp	r4, #400
 2029 0008 09D0     		beq	.L135
 2030              	.L131:
  59:../Libraries/AQ_Accelerometer/Accelerometer_MPU6000.h **** 	readMPU6000Sensors();
 2031              		.loc 10 59 0 is_stmt 1 discriminator 2
 2032 000a FFF7FEFF 		bl	_Z18readMPU6000Sensorsv
 2033              	.LVL125:
  60:../Libraries/AQ_Accelerometer/Accelerometer_MPU6000.h ****     measureAccelSum();
 2034              		.loc 10 60 0 discriminator 2
 2035 000e FFF7FEFF 		bl	_Z15measureAccelSumv
 2036              	.LVL126:
  61:../Libraries/AQ_Accelerometer/Accelerometer_MPU6000.h ****     delayMicroseconds(2500);
 2037              		.loc 10 61 0 discriminator 2
 2038 0012 40F6C410 		movw	r0, #2500
 2039 0016 FFF7FEFF 		bl	_Z17delayMicrosecondsj
 2040              	.LVL127:
  58:../Libraries/AQ_Accelerometer/Accelerometer_MPU6000.h ****   for (int samples = 0; samples < SAMPLECOUNT; samples++) {
 2041              		.loc 10 58 0 discriminator 2
 2042 001a 0134     		adds	r4, r4, #1
 2043              	.LVL128:
 2044 001c F2E7     		b	.L130
 2045              	.L135:
  58:../Libraries/AQ_Accelerometer/Accelerometer_MPU6000.h ****   for (int samples = 0; samples < SAMPLECOUNT; samples++) {
 2046              		.loc 10 58 0 is_stmt 0
 2047 001e 0023     		movs	r3, #0
 2048              	.LVL129:
 2049              	.L132:
 2050              	.LBE181:
 2051              	.LBB182:
  62:../Libraries/AQ_Accelerometer/Accelerometer_MPU6000.h ****   }
  63:../Libraries/AQ_Accelerometer/Accelerometer_MPU6000.h **** 
  64:../Libraries/AQ_Accelerometer/Accelerometer_MPU6000.h ****   for (byte axis = 0; axis < 3; axis++) {
  65:../Libraries/AQ_Accelerometer/Accelerometer_MPU6000.h ****     meterPerSecSec[axis] = (float(accelSample[axis])/SAMPLECOUNT) * accelScaleFactor[axis];
 2052              		.loc 10 65 0 is_stmt 1 discriminator 2
 2053 0020 1E48     		ldr	r0, .L136
  57:../Libraries/AQ_Accelerometer/Accelerometer_MPU6000.h **** void computeAccelBias() {
 2054              		.loc 10 57 0 discriminator 2
 2055 0022 1F4A     		ldr	r2, .L136+4
 2056              		.loc 10 65 0 discriminator 2
 2057 0024 1C58     		ldr	r4, [r3, r0]
 2058 0026 07EE904A 		fmsr	s15, r4	@ int
 2059 002a 9FED1E0A 		flds	s0, .L136+8
 2060 002e B8EEE77A 		fsitos	s14, s15
  57:../Libraries/AQ_Accelerometer/Accelerometer_MPU6000.h **** void computeAccelBias() {
 2061              		.loc 10 57 0 discriminator 2
 2062 0032 1D4C     		ldr	r4, .L136+12
 2063              		.loc 10 65 0 discriminator 2
 2064 0034 C7EE000A 		fdivs	s1, s14, s0
  57:../Libraries/AQ_Accelerometer/Accelerometer_MPU6000.h **** void computeAccelBias() {
 2065              		.loc 10 57 0 discriminator 2
 2066 0038 E418     		adds	r4, r4, r3
 2067 003a D118     		adds	r1, r2, r3
 2068              		.loc 10 65 0 discriminator 2
 2069 003c 94ED001A 		flds	s2, [r4, #0]
 2070 0040 60EE811A 		fmuls	s3, s1, s2
 2071 0044 C1ED001A 		fsts	s3, [r1, #0]
  66:../Libraries/AQ_Accelerometer/Accelerometer_MPU6000.h ****     accelSample[axis] = 0;
 2072              		.loc 10 66 0 discriminator 2
 2073 0048 0021     		movs	r1, #0
 2074 004a 1950     		str	r1, [r3, r0]
 2075              	.LVL130:
 2076 004c 0433     		adds	r3, r3, #4
  64:../Libraries/AQ_Accelerometer/Accelerometer_MPU6000.h ****   for (byte axis = 0; axis < 3; axis++) {
 2077              		.loc 10 64 0 discriminator 2
 2078 004e 0C2B     		cmp	r3, #12
 2079 0050 E6D1     		bne	.L132
 2080              	.LBE182:
  67:../Libraries/AQ_Accelerometer/Accelerometer_MPU6000.h ****   }
  68:../Libraries/AQ_Accelerometer/Accelerometer_MPU6000.h ****   accelSampleCount = 0;
  69:../Libraries/AQ_Accelerometer/Accelerometer_MPU6000.h **** 
  70:../Libraries/AQ_Accelerometer/Accelerometer_MPU6000.h ****   runTimeAccelBias[XAXIS] = -meterPerSecSec[XAXIS];
  71:../Libraries/AQ_Accelerometer/Accelerometer_MPU6000.h ****   runTimeAccelBias[YAXIS] = -meterPerSecSec[YAXIS];
  72:../Libraries/AQ_Accelerometer/Accelerometer_MPU6000.h ****   runTimeAccelBias[ZAXIS] = -9.8065 - meterPerSecSec[ZAXIS];
 2081              		.loc 10 72 0
 2082 0052 92ED024A 		flds	s8, [r2, #8]
 2083 0056 DFED154A 		flds	s9, .L136+16
 2084 005a 34EEC45A 		fsubs	s10, s9, s8
  68:../Libraries/AQ_Accelerometer/Accelerometer_MPU6000.h ****   accelSampleCount = 0;
 2085              		.loc 10 68 0
 2086 005e 1448     		ldr	r0, .L136+20
  73:../Libraries/AQ_Accelerometer/Accelerometer_MPU6000.h **** 
  74:../Libraries/AQ_Accelerometer/Accelerometer_MPU6000.h ****   accelOneG = abs(meterPerSecSec[ZAXIS] + runTimeAccelBias[ZAXIS]);
 2087              		.loc 10 74 0
 2088 0060 74EE055A 		fadds	s11, s8, s10
  70:../Libraries/AQ_Accelerometer/Accelerometer_MPU6000.h ****   runTimeAccelBias[XAXIS] = -meterPerSecSec[XAXIS];
 2089              		.loc 10 70 0
 2090 0064 92ED002A 		flds	s4, [r2, #0]
  71:../Libraries/AQ_Accelerometer/Accelerometer_MPU6000.h ****   runTimeAccelBias[YAXIS] = -meterPerSecSec[YAXIS];
 2091              		.loc 10 71 0
 2092 0068 92ED013A 		flds	s6, [r2, #4]
 2093              		.loc 10 74 0
 2094 006c F5EEC05A 		fcmpezs	s11
  68:../Libraries/AQ_Accelerometer/Accelerometer_MPU6000.h ****   accelSampleCount = 0;
 2095              		.loc 10 68 0
 2096 0070 0170     		strb	r1, [r0, #0]
 2097              		.loc 10 74 0
 2098 0072 F1EE10FA 		fmstat
  70:../Libraries/AQ_Accelerometer/Accelerometer_MPU6000.h ****   runTimeAccelBias[XAXIS] = -meterPerSecSec[XAXIS];
 2099              		.loc 10 70 0
 2100 0076 0F49     		ldr	r1, .L136+24
 2101              		.loc 10 74 0
 2102 0078 0F4A     		ldr	r2, .L136+28
  70:../Libraries/AQ_Accelerometer/Accelerometer_MPU6000.h ****   runTimeAccelBias[XAXIS] = -meterPerSecSec[XAXIS];
 2103              		.loc 10 70 0
 2104 007a F1EE422A 		fnegs	s5, s4
  71:../Libraries/AQ_Accelerometer/Accelerometer_MPU6000.h ****   runTimeAccelBias[YAXIS] = -meterPerSecSec[YAXIS];
 2105              		.loc 10 71 0
 2106 007e F1EE433A 		fnegs	s7, s6
 2107              		.loc 10 74 0
 2108 0082 D8BF     		it	le
 2109 0084 F1EE655A 		fnegsle	s11, s11
  70:../Libraries/AQ_Accelerometer/Accelerometer_MPU6000.h ****   runTimeAccelBias[XAXIS] = -meterPerSecSec[XAXIS];
 2110              		.loc 10 70 0
 2111 0088 C1ED002A 		fsts	s5, [r1, #0]
  71:../Libraries/AQ_Accelerometer/Accelerometer_MPU6000.h ****   runTimeAccelBias[YAXIS] = -meterPerSecSec[YAXIS];
 2112              		.loc 10 71 0
 2113 008c C1ED013A 		fsts	s7, [r1, #4]
  72:../Libraries/AQ_Accelerometer/Accelerometer_MPU6000.h ****   runTimeAccelBias[ZAXIS] = -9.8065 - meterPerSecSec[ZAXIS];
 2114              		.loc 10 72 0
 2115 0090 81ED025A 		fsts	s10, [r1, #8]
 2116              		.loc 10 74 0
 2117 0094 C2ED005A 		fsts	s11, [r2, #0]
 2118 0098 10BD     		pop	{r4, pc}
 2119              	.L137:
 2120 009a 00BF     		.align	2
 2121              	.L136:
 2122 009c 00000000 		.word	.LANCHOR29
 2123 00a0 00000000 		.word	.LANCHOR26
 2124 00a4 0000C843 		.word	1137180672
 2125 00a8 00000000 		.word	.LANCHOR27
 2126 00ac 6DE71CC1 		.word	3239896941
 2127 00b0 00000000 		.word	.LANCHOR30
 2128 00b4 00000000 		.word	.LANCHOR28
 2129 00b8 00000000 		.word	.LANCHOR31
 2130              	.LBE180:
 2131              		.cfi_endproc
 2132              	.LFE159:
 2134              		.section	.text._Z8getHdgXYh,"ax",%progbits
 2135              		.align	1
 2136              		.global	_Z8getHdgXYh
 2137              		.thumb
 2138              		.thumb_func
 2140              	_Z8getHdgXYh:
 2141              	.LFB160:
 2142              		.file 11 "../Libraries/AQ_Compass/Compass.h"
   1:../Libraries/AQ_Compass/Compass.h **** /*
   2:../Libraries/AQ_Compass/Compass.h ****   AeroQuad v3.0.1 - February 2012
   3:../Libraries/AQ_Compass/Compass.h ****   www.AeroQuad.com
   4:../Libraries/AQ_Compass/Compass.h ****   Copyright (c) 2012 Ted Carancho.  All rights reserved.
   5:../Libraries/AQ_Compass/Compass.h ****   An Open Source Arduino based multicopter.
   6:../Libraries/AQ_Compass/Compass.h ****  
   7:../Libraries/AQ_Compass/Compass.h ****   This program is free software: you can redistribute it and/or modify 
   8:../Libraries/AQ_Compass/Compass.h ****   it under the terms of the GNU General Public License as published by 
   9:../Libraries/AQ_Compass/Compass.h ****   the Free Software Foundation, either version 3 of the License, or 
  10:../Libraries/AQ_Compass/Compass.h ****   (at your option) any later version. 
  11:../Libraries/AQ_Compass/Compass.h **** 
  12:../Libraries/AQ_Compass/Compass.h ****   This program is distributed in the hope that it will be useful, 
  13:../Libraries/AQ_Compass/Compass.h ****   but WITHOUT ANY WARRANTY; without even the implied warranty of 
  14:../Libraries/AQ_Compass/Compass.h ****   MERCHANTABILITY or FITNESS FOR A PARTICULAR PURPOSE. See the 
  15:../Libraries/AQ_Compass/Compass.h ****   GNU General Public License for more details. 
  16:../Libraries/AQ_Compass/Compass.h **** 
  17:../Libraries/AQ_Compass/Compass.h ****   You should have received a copy of the GNU General Public License 
  18:../Libraries/AQ_Compass/Compass.h ****   along with this program. If not, see <http://www.gnu.org/licenses/>. 
  19:../Libraries/AQ_Compass/Compass.h **** */
  20:../Libraries/AQ_Compass/Compass.h **** 
  21:../Libraries/AQ_Compass/Compass.h **** 
  22:../Libraries/AQ_Compass/Compass.h **** #ifndef _AEROQUAD_COMPASS_H_
  23:../Libraries/AQ_Compass/Compass.h **** #define _AEROQUAD_COMPASS_H_
  24:../Libraries/AQ_Compass/Compass.h **** 
  25:../Libraries/AQ_Compass/Compass.h **** #include "Arduino.h"
  26:../Libraries/AQ_Compass/Compass.h **** 
  27:../Libraries/AQ_Compass/Compass.h **** float hdgX = 0.0;
  28:../Libraries/AQ_Compass/Compass.h **** float hdgY = 0.0;
  29:../Libraries/AQ_Compass/Compass.h **** 
  30:../Libraries/AQ_Compass/Compass.h **** float measuredMagX = 0.0;
  31:../Libraries/AQ_Compass/Compass.h **** float measuredMagY = 0.0;
  32:../Libraries/AQ_Compass/Compass.h **** float measuredMagZ = 0.0;
  33:../Libraries/AQ_Compass/Compass.h **** float measuredMag[3] = {0.0,0.0,0.0};
  34:../Libraries/AQ_Compass/Compass.h **** float rawMag[3] = {0.0,0.0,0.0};
  35:../Libraries/AQ_Compass/Compass.h **** float magBias[3] = {0.0,0.0,0.0};
  36:../Libraries/AQ_Compass/Compass.h **** 
  37:../Libraries/AQ_Compass/Compass.h **** void initializeMagnetometer();
  38:../Libraries/AQ_Compass/Compass.h **** void measureMagnetometer(float roll, float pitch);
  39:../Libraries/AQ_Compass/Compass.h **** 
  40:../Libraries/AQ_Compass/Compass.h **** const float getHdgXY(byte axis) {
 2143              		.loc 11 40 0
 2144              		.cfi_startproc
 2145              		@ args = 0, pretend = 0, frame = 0
 2146              		@ frame_needed = 0, uses_anonymous_args = 0
 2147              		@ link register save eliminated.
 2148              	.LVL131:
  41:../Libraries/AQ_Compass/Compass.h ****   if (axis == XAXIS) {
 2149              		.loc 11 41 0
 2150 0000 08B9     		cbnz	r0, .L139
  42:../Libraries/AQ_Compass/Compass.h ****     return hdgX;
 2151              		.loc 11 42 0
 2152 0002 024B     		ldr	r3, .L142
 2153 0004 00E0     		b	.L141
 2154              	.L139:
  43:../Libraries/AQ_Compass/Compass.h ****   } else {
  44:../Libraries/AQ_Compass/Compass.h ****     return hdgY;
 2155              		.loc 11 44 0
 2156 0006 024B     		ldr	r3, .L142+4
 2157              	.L141:
 2158 0008 1868     		ldr	r0, [r3, #0]	@ float
 2159              	.LVL132:
  45:../Libraries/AQ_Compass/Compass.h ****   }
  46:../Libraries/AQ_Compass/Compass.h **** }
 2160              		.loc 11 46 0
 2161 000a 7047     		bx	lr
 2162              	.L143:
 2163              		.align	2
 2164              	.L142:
 2165 000c 00000000 		.word	.LANCHOR32
 2166 0010 00000000 		.word	.LANCHOR33
 2167              		.cfi_endproc
 2168              	.LFE160:
 2170              		.section	.text._Z22getMagnetometerRawDatah,"ax",%progbits
 2171              		.align	1
 2172              		.global	_Z22getMagnetometerRawDatah
 2173              		.thumb
 2174              		.thumb_func
 2176              	_Z22getMagnetometerRawDatah:
 2177              	.LFB161:
  47:../Libraries/AQ_Compass/Compass.h **** 
  48:../Libraries/AQ_Compass/Compass.h **** const int getMagnetometerRawData(byte axis) {
 2178              		.loc 11 48 0
 2179              		.cfi_startproc
 2180              		@ args = 0, pretend = 0, frame = 0
 2181              		@ frame_needed = 0, uses_anonymous_args = 0
 2182              		@ link register save eliminated.
 2183              	.LVL133:
  49:../Libraries/AQ_Compass/Compass.h ****   return rawMag[axis];
 2184              		.loc 11 49 0
 2185 0000 044B     		ldr	r3, .L145
 2186 0002 03EB8000 		add	r0, r3, r0, lsl #2
 2187              	.LVL134:
 2188 0006 D0ED007A 		flds	s15, [r0, #0]
  50:../Libraries/AQ_Compass/Compass.h **** }
 2189              		.loc 11 50 0
 2190 000a BDEEE70A 		ftosizs	s0, s15
 2191 000e 10EE100A 		fmrs	r0, s0	@ int
 2192 0012 7047     		bx	lr
 2193              	.L146:
 2194              		.align	2
 2195              	.L145:
 2196 0014 00000000 		.word	.LANCHOR34
 2197              		.cfi_endproc
 2198              	.LFE161:
 2200              		.section	.text._Z19getMagnetometerDatah,"ax",%progbits
 2201              		.align	1
 2202              		.global	_Z19getMagnetometerDatah
 2203              		.thumb
 2204              		.thumb_func
 2206              	_Z19getMagnetometerDatah:
 2207              	.LFB162:
  51:../Libraries/AQ_Compass/Compass.h **** 
  52:../Libraries/AQ_Compass/Compass.h **** const int getMagnetometerData(byte axis) {
 2208              		.loc 11 52 0
 2209              		.cfi_startproc
 2210              		@ args = 0, pretend = 0, frame = 0
 2211              		@ frame_needed = 0, uses_anonymous_args = 0
 2212              		@ link register save eliminated.
 2213              	.LVL135:
  53:../Libraries/AQ_Compass/Compass.h ****   return measuredMag[axis];
 2214              		.loc 11 53 0
 2215 0000 044B     		ldr	r3, .L148
 2216 0002 03EB8000 		add	r0, r3, r0, lsl #2
 2217              	.LVL136:
 2218 0006 D0ED007A 		flds	s15, [r0, #0]
  54:../Libraries/AQ_Compass/Compass.h **** }
 2219              		.loc 11 54 0
 2220 000a BDEEE70A 		ftosizs	s0, s15
 2221 000e 10EE100A 		fmrs	r0, s0	@ int
 2222 0012 7047     		bx	lr
 2223              	.L149:
 2224              		.align	2
 2225              	.L148:
 2226 0014 00000000 		.word	.LANCHOR35
 2227              		.cfi_endproc
 2228              	.LFE162:
 2230              		.global	__aeabi_f2d
 2231              		.global	__aeabi_d2f
 2232              		.section	.text._Z18getAbsoluteHeadingv,"ax",%progbits
 2233              		.align	1
 2234              		.global	_Z18getAbsoluteHeadingv
 2235              		.thumb
 2236              		.thumb_func
 2238              	_Z18getAbsoluteHeadingv:
 2239              	.LFB163:
  55:../Libraries/AQ_Compass/Compass.h **** 
  56:../Libraries/AQ_Compass/Compass.h **** 
  57:../Libraries/AQ_Compass/Compass.h **** const float getAbsoluteHeading() {
 2240              		.loc 11 57 0
 2241              		.cfi_startproc
 2242              		@ args = 0, pretend = 0, frame = 0
 2243              		@ frame_needed = 0, uses_anonymous_args = 0
 2244 0000 38B5     		push	{r3, r4, r5, lr}
 2245              	.LCFI20:
 2246              		.cfi_def_cfa_offset 16
 2247              		.cfi_offset 3, -16
 2248              		.cfi_offset 4, -12
 2249              		.cfi_offset 5, -8
 2250              		.cfi_offset 14, -4
 2251              	.LBB183:
  58:../Libraries/AQ_Compass/Compass.h ****   float heading = atan2(hdgY, hdgX);
 2252              		.loc 11 58 0
 2253 0002 104B     		ldr	r3, .L154
 2254 0004 1868     		ldr	r0, [r3, #0]	@ float
 2255 0006 FFF7FEFF 		bl	__aeabi_f2d
 2256              	.LVL137:
 2257 000a 0446     		mov	r4, r0
 2258 000c 0E48     		ldr	r0, .L154+4
 2259 000e 0068     		ldr	r0, [r0, #0]	@ float
 2260 0010 0D46     		mov	r5, r1
 2261 0012 FFF7FEFF 		bl	__aeabi_f2d
 2262              	.LVL138:
 2263 0016 0246     		mov	r2, r0
 2264 0018 0B46     		mov	r3, r1
 2265 001a 2046     		mov	r0, r4
 2266 001c 2946     		mov	r1, r5
 2267 001e FFF7FEFF 		bl	atan2
 2268              	.LVL139:
 2269 0022 FFF7FEFF 		bl	__aeabi_d2f
 2270              	.LVL140:
 2271 0026 07EE900A 		fmsr	s15, r0
 2272              	.LVL141:
  59:../Libraries/AQ_Compass/Compass.h ****   if (heading < 0) {
 2273              		.loc 11 59 0
 2274 002a F5EEC07A 		fcmpezs	s15
 2275 002e F1EE10FA 		fmstat
  60:../Libraries/AQ_Compass/Compass.h **** 	heading += radians(360);
 2276              		.loc 11 60 0
 2277 0032 44BF     		itt	mi
 2278 0034 9FED057A 		fldsmi	s14, .L154+8
 2279 0038 77EE877A 		faddsmi	s15, s15, s14
 2280              	.LVL142:
 2281              	.LBE183:
  61:../Libraries/AQ_Compass/Compass.h ****   }
  62:../Libraries/AQ_Compass/Compass.h ****   return heading;
  63:../Libraries/AQ_Compass/Compass.h **** }
 2282              		.loc 11 63 0
 2283 003c 17EE900A 		fmrs	r0, s15
 2284 0040 38BD     		pop	{r3, r4, r5, pc}
 2285              	.L155:
 2286 0042 00BF     		.align	2
 2287              	.L154:
 2288 0044 00000000 		.word	.LANCHOR33
 2289 0048 00000000 		.word	.LANCHOR32
 2290 004c DB0FC940 		.word	1086918619
 2291              		.cfi_endproc
 2292              	.LFE163:
 2294              		.section	.text._Z12initPlatformv,"ax",%progbits
 2295              		.align	1
 2296              		.global	_Z12initPlatformv
 2297              		.thumb
 2298              		.thumb_func
 2300              	_Z12initPlatformv:
 2301              	.LFB164:
 2302              		.file 12 "../AeroQuad32/platform_aeroquad32.h"
   1:../AeroQuad32/platform_aeroquad32.h **** #ifndef _PLATFORM_AEROQUAD32_H_
   2:../AeroQuad32/platform_aeroquad32.h **** 
   3:../AeroQuad32/platform_aeroquad32.h **** #define _PLATFORM_AEROQUAD32_H_
   4:../AeroQuad32/platform_aeroquad32.h **** 
   5:../AeroQuad32/platform_aeroquad32.h **** static byte __attribute__((unused)) stm32_motor_mapping[] = {
   6:../AeroQuad32/platform_aeroquad32.h ****   Port2Pin('C',  9),
   7:../AeroQuad32/platform_aeroquad32.h ****   Port2Pin('C',  8),
   8:../AeroQuad32/platform_aeroquad32.h ****   Port2Pin('C',  7),
   9:../AeroQuad32/platform_aeroquad32.h ****   Port2Pin('C',  6),
  10:../AeroQuad32/platform_aeroquad32.h ****   Port2Pin('A', 15),
  11:../AeroQuad32/platform_aeroquad32.h ****   Port2Pin('B',  3),
  12:../AeroQuad32/platform_aeroquad32.h ****   Port2Pin('B',  4),
  13:../AeroQuad32/platform_aeroquad32.h ****   Port2Pin('B',  5)
  14:../AeroQuad32/platform_aeroquad32.h **** };
  15:../AeroQuad32/platform_aeroquad32.h **** 
  16:../AeroQuad32/platform_aeroquad32.h **** static byte __attribute__((unused)) stm32_motor_mapping_tri[] = {
  17:../AeroQuad32/platform_aeroquad32.h ****   Port2Pin('A', 15), // note this must be on separate timer device !!
  18:../AeroQuad32/platform_aeroquad32.h ****   Port2Pin('C',  8),
  19:../AeroQuad32/platform_aeroquad32.h ****   Port2Pin('C',  7),
  20:../AeroQuad32/platform_aeroquad32.h ****   Port2Pin('C',  6),
  21:../AeroQuad32/platform_aeroquad32.h **** };
  22:../AeroQuad32/platform_aeroquad32.h **** 
  23:../AeroQuad32/platform_aeroquad32.h **** #ifdef RECEIVER_STM32PPM
  24:../AeroQuad32/platform_aeroquad32.h ****   static byte receiverPinPPM = Port2Pin('D', 15);
  25:../AeroQuad32/platform_aeroquad32.h **** #elif defined ReceiverSBUS
  26:../AeroQuad32/platform_aeroquad32.h ****   // Do nothing
  27:../AeroQuad32/platform_aeroquad32.h **** #else
  28:../AeroQuad32/platform_aeroquad32.h ****   static byte receiverPin[] = {
  29:../AeroQuad32/platform_aeroquad32.h ****     Port2Pin('D', 12),
  30:../AeroQuad32/platform_aeroquad32.h ****     Port2Pin('D', 13),
  31:../AeroQuad32/platform_aeroquad32.h ****     Port2Pin('D', 14),
  32:../AeroQuad32/platform_aeroquad32.h ****     Port2Pin('D', 15),
  33:../AeroQuad32/platform_aeroquad32.h ****     Port2Pin('E',  9),
  34:../AeroQuad32/platform_aeroquad32.h ****     Port2Pin('E', 11),
  35:../AeroQuad32/platform_aeroquad32.h ****     Port2Pin('E', 13),
  36:../AeroQuad32/platform_aeroquad32.h ****     Port2Pin('E', 14)
  37:../AeroQuad32/platform_aeroquad32.h ****   };
  38:../AeroQuad32/platform_aeroquad32.h **** #endif
  39:../AeroQuad32/platform_aeroquad32.h **** 
  40:../AeroQuad32/platform_aeroquad32.h **** #define STM32_BOARD_TYPE "aeroquad32"
  41:../AeroQuad32/platform_aeroquad32.h **** #define LED_Green  Port2Pin('E', 6)
  42:../AeroQuad32/platform_aeroquad32.h **** #define LED_Red    Port2Pin('E', 5)
  43:../AeroQuad32/platform_aeroquad32.h **** #define LED_Yellow LED_Red
  44:../AeroQuad32/platform_aeroquad32.h **** 
  45:../AeroQuad32/platform_aeroquad32.h **** #define BATT_ANALOG_INPUT	Port2Pin('C', 0)
  46:../AeroQuad32/platform_aeroquad32.h **** #define A1       Port2Pin('B',0)
  47:../AeroQuad32/platform_aeroquad32.h **** #define A2       Port2Pin('C',4)
  48:../AeroQuad32/platform_aeroquad32.h **** #define A3       Port2Pin('B',1)
  49:../AeroQuad32/platform_aeroquad32.h **** #define A4       Port2Pin('C',5)
  50:../AeroQuad32/platform_aeroquad32.h **** #define A5       Port2Pin('C',2)
  51:../AeroQuad32/platform_aeroquad32.h **** #define A6       Port2Pin('C',3)
  52:../AeroQuad32/platform_aeroquad32.h **** 
  53:../AeroQuad32/platform_aeroquad32.h **** // external LED drivers
  54:../AeroQuad32/platform_aeroquad32.h **** #define PLED1 Port2Pin('D',  7)
  55:../AeroQuad32/platform_aeroquad32.h **** #define PLED2 Port2Pin('E',  0)
  56:../AeroQuad32/platform_aeroquad32.h **** #define PLED3 Port2Pin('E',  1)
  57:../AeroQuad32/platform_aeroquad32.h **** #define PLED4 Port2Pin('D',  4) 
  58:../AeroQuad32/platform_aeroquad32.h **** 
  59:../AeroQuad32/platform_aeroquad32.h **** #include <Device_I2C.h>
  60:../AeroQuad32/platform_aeroquad32.h **** 
  61:../AeroQuad32/platform_aeroquad32.h **** #include <Gyroscope_MPU6000.h>
  62:../AeroQuad32/platform_aeroquad32.h **** #include <Accelerometer_MPU6000.h>
  63:../AeroQuad32/platform_aeroquad32.h **** 
  64:../AeroQuad32/platform_aeroquad32.h **** // heading mag hold declaration
  65:../AeroQuad32/platform_aeroquad32.h **** #ifdef HeadingMagHold
  66:../AeroQuad32/platform_aeroquad32.h ****   #include <Compass.h>
  67:../AeroQuad32/platform_aeroquad32.h ****   #define HMC5883L
  68:../AeroQuad32/platform_aeroquad32.h **** #endif
  69:../AeroQuad32/platform_aeroquad32.h **** 
  70:../AeroQuad32/platform_aeroquad32.h **** // Altitude declaration
  71:../AeroQuad32/platform_aeroquad32.h **** #ifdef AltitudeHoldBaro
  72:../AeroQuad32/platform_aeroquad32.h ****   #define MS5611
  73:../AeroQuad32/platform_aeroquad32.h **** #endif
  74:../AeroQuad32/platform_aeroquad32.h **** 
  75:../AeroQuad32/platform_aeroquad32.h **** #ifdef AltitudeHoldRangeFinder
  76:../AeroQuad32/platform_aeroquad32.h ****   #define XLMAXSONAR
  77:../AeroQuad32/platform_aeroquad32.h **** #endif
  78:../AeroQuad32/platform_aeroquad32.h **** 
  79:../AeroQuad32/platform_aeroquad32.h **** // Battery Monitor declaration
  80:../AeroQuad32/platform_aeroquad32.h **** #ifdef BattMonitor
  81:../AeroQuad32/platform_aeroquad32.h ****   #define BATT_AREF         3.3		// V
  82:../AeroQuad32/platform_aeroquad32.h ****   #define BATT_R_HIGH       10.0		// kOhm
  83:../AeroQuad32/platform_aeroquad32.h ****   #define BATT_R_LOW        1.5		// kOhm
  84:../AeroQuad32/platform_aeroquad32.h ****   #define BATT_DIODE_LOSS		0.0
  85:../AeroQuad32/platform_aeroquad32.h ****   #define BattDefaultConfig DEFINE_BATTERY(0, BATT_ANALOG_INPUT, (BATT_AREF * (BATT_R_HIGH + BATT_R
  86:../AeroQuad32/platform_aeroquad32.h **** #endif
  87:../AeroQuad32/platform_aeroquad32.h **** 
  88:../AeroQuad32/platform_aeroquad32.h **** #ifdef OSD
  89:../AeroQuad32/platform_aeroquad32.h ****   #define MAX7456_OSD
  90:../AeroQuad32/platform_aeroquad32.h **** #endif
  91:../AeroQuad32/platform_aeroquad32.h **** 
  92:../AeroQuad32/platform_aeroquad32.h **** #ifdef CameraControl
  93:../AeroQuad32/platform_aeroquad32.h ****   #define CameraControl_STM32
  94:../AeroQuad32/platform_aeroquad32.h **** #endif
  95:../AeroQuad32/platform_aeroquad32.h **** 
  96:../AeroQuad32/platform_aeroquad32.h **** void initPlatform() {
 2303              		.loc 12 96 0
 2304              		.cfi_startproc
 2305              		@ args = 0, pretend = 0, frame = 0
 2306              		@ frame_needed = 0, uses_anonymous_args = 0
 2307 0000 10B5     		push	{r4, lr}
 2308              	.LCFI21:
 2309              		.cfi_def_cfa_offset 8
 2310              		.cfi_offset 4, -8
 2311              		.cfi_offset 14, -4
 2312              	.LBB184:
  97:../AeroQuad32/platform_aeroquad32.h ****   pinMode(LED_Green, OUTPUT);
 2313              		.loc 12 97 0
 2314 0002 4620     		movs	r0, #70
 2315 0004 0021     		movs	r1, #0
 2316 0006 FFF7FEFF 		bl	_Z7pinModeh13WiringPinMode
 2317              	.LVL143:
  98:../AeroQuad32/platform_aeroquad32.h ****   for(byte ledloop=0; ledloop<10; ledloop++) {
 2318              		.loc 12 98 0
 2319 000a 0024     		movs	r4, #0
 2320              	.LVL144:
 2321              	.L157:
 2322              	.LBB185:
  99:../AeroQuad32/platform_aeroquad32.h ****     digitalWrite(LED_Green, ledloop & 1);
 2323              		.loc 12 99 0 discriminator 2
 2324 000c 4620     		movs	r0, #70
 2325 000e 04F00101 		and	r1, r4, #1
  98:../AeroQuad32/platform_aeroquad32.h ****   for(byte ledloop=0; ledloop<10; ledloop++) {
 2326              		.loc 12 98 0 discriminator 2
 2327 0012 0134     		adds	r4, r4, #1
 2328              		.loc 12 99 0 discriminator 2
 2329 0014 FFF7FEFF 		bl	_Z12digitalWritehh
 2330              	.LVL145:
  98:../AeroQuad32/platform_aeroquad32.h ****   for(byte ledloop=0; ledloop<10; ledloop++) {
 2331              		.loc 12 98 0 discriminator 2
 2332 0018 E4B2     		uxtb	r4, r4
 100:../AeroQuad32/platform_aeroquad32.h ****     delay(50);
 2333              		.loc 12 100 0 discriminator 2
 2334 001a 3220     		movs	r0, #50
 2335 001c FFF7FEFF 		bl	_Z5delaym
 2336              	.LVL146:
  98:../AeroQuad32/platform_aeroquad32.h ****   for(byte ledloop=0; ledloop<10; ledloop++) {
 2337              		.loc 12 98 0 discriminator 2
 2338 0020 0A2C     		cmp	r4, #10
 2339 0022 F3D1     		bne	.L157
 2340              	.LBE185:
 101:../AeroQuad32/platform_aeroquad32.h ****   }
 102:../AeroQuad32/platform_aeroquad32.h **** 
 103:../AeroQuad32/platform_aeroquad32.h ****   pinMode(LED_Red, OUTPUT);
 2341              		.loc 12 103 0
 2342 0024 4520     		movs	r0, #69
 2343 0026 0021     		movs	r1, #0
 2344 0028 FFF7FEFF 		bl	_Z7pinModeh13WiringPinMode
 2345              	.LVL147:
 104:../AeroQuad32/platform_aeroquad32.h ****   digitalWrite(LED_Red, LOW);
 2346              		.loc 12 104 0
 2347 002c 4520     		movs	r0, #69
 2348 002e 0021     		movs	r1, #0
 2349 0030 FFF7FEFF 		bl	_Z12digitalWritehh
 2350              	.LVL148:
 105:../AeroQuad32/platform_aeroquad32.h ****   pinMode(LED_Yellow, OUTPUT);
 2351              		.loc 12 105 0
 2352 0034 4520     		movs	r0, #69
 2353 0036 0021     		movs	r1, #0
 2354 0038 FFF7FEFF 		bl	_Z7pinModeh13WiringPinMode
 2355              	.LVL149:
 106:../AeroQuad32/platform_aeroquad32.h ****   digitalWrite(LED_Yellow, LOW);
 2356              		.loc 12 106 0
 2357 003c 4520     		movs	r0, #69
 2358 003e 0021     		movs	r1, #0
 2359 0040 FFF7FEFF 		bl	_Z12digitalWritehh
 2360              	.LVL150:
 107:../AeroQuad32/platform_aeroquad32.h **** 
 108:../AeroQuad32/platform_aeroquad32.h ****   pinMode(BATT_ANALOG_INPUT, INPUT_ANALOG);
 2361              		.loc 12 108 0
 2362 0044 2020     		movs	r0, #32
 2363 0046 0321     		movs	r1, #3
 2364 0048 FFF7FEFF 		bl	_Z7pinModeh13WiringPinMode
 2365              	.LVL151:
 109:../AeroQuad32/platform_aeroquad32.h ****   pinMode(A1, INPUT_ANALOG);
 2366              		.loc 12 109 0
 2367 004c 1020     		movs	r0, #16
 2368 004e 0321     		movs	r1, #3
 2369 0050 FFF7FEFF 		bl	_Z7pinModeh13WiringPinMode
 2370              	.LVL152:
 110:../AeroQuad32/platform_aeroquad32.h ****   pinMode(A2, INPUT_ANALOG);
 2371              		.loc 12 110 0
 2372 0054 2420     		movs	r0, #36
 2373 0056 0321     		movs	r1, #3
 2374 0058 FFF7FEFF 		bl	_Z7pinModeh13WiringPinMode
 2375              	.LVL153:
 111:../AeroQuad32/platform_aeroquad32.h ****   pinMode(A3, INPUT_ANALOG);
 2376              		.loc 12 111 0
 2377 005c 1120     		movs	r0, #17
 2378 005e 0321     		movs	r1, #3
 2379 0060 FFF7FEFF 		bl	_Z7pinModeh13WiringPinMode
 2380              	.LVL154:
 112:../AeroQuad32/platform_aeroquad32.h ****   pinMode(A4, INPUT_ANALOG);
 2381              		.loc 12 112 0
 2382 0064 2520     		movs	r0, #37
 2383 0066 0321     		movs	r1, #3
 2384 0068 FFF7FEFF 		bl	_Z7pinModeh13WiringPinMode
 2385              	.LVL155:
 113:../AeroQuad32/platform_aeroquad32.h ****   pinMode(A5, INPUT_ANALOG);
 2386              		.loc 12 113 0
 2387 006c 2220     		movs	r0, #34
 2388 006e 0321     		movs	r1, #3
 2389 0070 FFF7FEFF 		bl	_Z7pinModeh13WiringPinMode
 2390              	.LVL156:
 114:../AeroQuad32/platform_aeroquad32.h ****   pinMode(A6, INPUT_ANALOG);
 2391              		.loc 12 114 0
 2392 0074 0321     		movs	r1, #3
 2393 0076 2320     		movs	r0, #35
 2394 0078 FFF7FEFF 		bl	_Z7pinModeh13WiringPinMode
 2395              	.LVL157:
 115:../AeroQuad32/platform_aeroquad32.h **** 
 116:../AeroQuad32/platform_aeroquad32.h ****   pinMode(PLED1, OUTPUT);
 2396              		.loc 12 116 0
 2397 007c 3720     		movs	r0, #55
 2398 007e 0021     		movs	r1, #0
 2399 0080 FFF7FEFF 		bl	_Z7pinModeh13WiringPinMode
 2400              	.LVL158:
 117:../AeroQuad32/platform_aeroquad32.h ****   pinMode(PLED2, OUTPUT);
 2401              		.loc 12 117 0
 2402 0084 4020     		movs	r0, #64
 2403 0086 0021     		movs	r1, #0
 2404 0088 FFF7FEFF 		bl	_Z7pinModeh13WiringPinMode
 2405              	.LVL159:
 118:../AeroQuad32/platform_aeroquad32.h ****   pinMode(PLED3, OUTPUT);
 2406              		.loc 12 118 0
 2407 008c 4120     		movs	r0, #65
 2408 008e 0021     		movs	r1, #0
 2409 0090 FFF7FEFF 		bl	_Z7pinModeh13WiringPinMode
 2410              	.LVL160:
 119:../AeroQuad32/platform_aeroquad32.h ****   pinMode(PLED4, OUTPUT);
 2411              		.loc 12 119 0
 2412 0094 3420     		movs	r0, #52
 2413 0096 0021     		movs	r1, #0
 2414 0098 FFF7FEFF 		bl	_Z7pinModeh13WiringPinMode
 2415              	.LVL161:
 120:../AeroQuad32/platform_aeroquad32.h **** 
 121:../AeroQuad32/platform_aeroquad32.h ****   // I2C setup
 122:../AeroQuad32/platform_aeroquad32.h ****   Wire.begin(Port2Pin('B', 7), Port2Pin('B', 6)); // I2C1_SDA PB7, I2C1_SCL PB6
 2416              		.loc 12 122 0
 2417 009c 0348     		ldr	r0, .L159
 2418 009e 1721     		movs	r1, #23
 2419 00a0 1622     		movs	r2, #22
 2420              	.LBE184:
 123:../AeroQuad32/platform_aeroquad32.h **** 
 124:../AeroQuad32/platform_aeroquad32.h ****   #if !defined(USE_USB_SERIAL)
 125:../AeroQuad32/platform_aeroquad32.h ****     SerialUSB.begin();
 126:../AeroQuad32/platform_aeroquad32.h ****   #endif
 127:../AeroQuad32/platform_aeroquad32.h **** }
 2421              		.loc 12 127 0
 2422 00a2 BDE81040 		pop	{r4, lr}
 2423              	.LBB186:
 122:../AeroQuad32/platform_aeroquad32.h ****   Wire.begin(Port2Pin('B', 7), Port2Pin('B', 6)); // I2C1_SDA PB7, I2C1_SCL PB6
 2424              		.loc 12 122 0
 2425 00a6 FFF7FEBF 		b	_ZN7TwoWire5beginEhh
 2426              	.LVL162:
 2427              	.L160:
 2428 00aa 00BF     		.align	2
 2429              	.L159:
 2430 00ac 00000000 		.word	Wire
 2431              	.LBE186:
 2432              		.cfi_endproc
 2433              	.LFE164:
 2435              		.section	.text._Z42initializePlatformSpecificAccelCalibrationv,"ax",%progbits
 2436              		.align	1
 2437              		.global	_Z42initializePlatformSpecificAccelCalibrationv
 2438              		.thumb
 2439              		.thumb_func
 2441              	_Z42initializePlatformSpecificAccelCalibrationv:
 2442              	.LFB165:
 128:../AeroQuad32/platform_aeroquad32.h **** 
 129:../AeroQuad32/platform_aeroquad32.h **** // called when eeprom is initialized
 130:../AeroQuad32/platform_aeroquad32.h **** void initializePlatformSpecificAccelCalibration() {
 2443              		.loc 12 130 0
 2444              		.cfi_startproc
 2445              		@ args = 0, pretend = 0, frame = 0
 2446              		@ frame_needed = 0, uses_anonymous_args = 0
 2447              		@ link register save eliminated.
 131:../AeroQuad32/platform_aeroquad32.h ****   // Kenny default value, a real accel calibration is strongly recommended
 132:../AeroQuad32/platform_aeroquad32.h ****   accelScaleFactor[XAXIS] = 0.0011970000;
 2448              		.loc 12 132 0
 2449 0000 074B     		ldr	r3, .L162
 2450 0002 084A     		ldr	r2, .L162+4
 133:../AeroQuad32/platform_aeroquad32.h ****   accelScaleFactor[YAXIS] = -0.0012050000;
 2451              		.loc 12 133 0
 2452 0004 0848     		ldr	r0, .L162+8
 134:../AeroQuad32/platform_aeroquad32.h ****   accelScaleFactor[ZAXIS] = -0.0011770000;
 2453              		.loc 12 134 0
 2454 0006 0949     		ldr	r1, .L162+12
 132:../AeroQuad32/platform_aeroquad32.h ****   accelScaleFactor[XAXIS] = 0.0011970000;
 2455              		.loc 12 132 0
 2456 0008 1A60     		str	r2, [r3, #0]	@ float
 133:../AeroQuad32/platform_aeroquad32.h ****   accelScaleFactor[YAXIS] = -0.0012050000;
 2457              		.loc 12 133 0
 2458 000a 5860     		str	r0, [r3, #4]	@ float
 2459              		.loc 12 134 0
 2460 000c 9960     		str	r1, [r3, #8]	@ float
 135:../AeroQuad32/platform_aeroquad32.h ****   #ifdef HeadingMagHold
 136:../AeroQuad32/platform_aeroquad32.h ****     magBias[XAXIS]  = 152.000000;
 2461              		.loc 12 136 0
 2462 000e 084A     		ldr	r2, .L162+16
 2463 0010 084B     		ldr	r3, .L162+20
 137:../AeroQuad32/platform_aeroquad32.h ****     magBias[YAXIS]  = 24.000000;
 2464              		.loc 12 137 0
 2465 0012 0948     		ldr	r0, .L162+24
 138:../AeroQuad32/platform_aeroquad32.h ****     magBias[ZAXIS]  = 16.500000;
 2466              		.loc 12 138 0
 2467 0014 0949     		ldr	r1, .L162+28
 136:../AeroQuad32/platform_aeroquad32.h ****     magBias[XAXIS]  = 152.000000;
 2468              		.loc 12 136 0
 2469 0016 1A60     		str	r2, [r3, #0]	@ float
 137:../AeroQuad32/platform_aeroquad32.h ****     magBias[YAXIS]  = 24.000000;
 2470              		.loc 12 137 0
 2471 0018 5860     		str	r0, [r3, #4]	@ float
 2472              		.loc 12 138 0
 2473 001a 9960     		str	r1, [r3, #8]	@ float
 2474 001c 7047     		bx	lr
 2475              	.L163:
 2476 001e 00BF     		.align	2
 2477              	.L162:
 2478 0020 00000000 		.word	.LANCHOR27
 2479 0024 A8E49C3A 		.word	983360680
 2480 0028 17F19DBA 		.word	-1164054249
 2481 002c 91459ABA 		.word	-1164294767
 2482 0030 00001843 		.word	1125646336
 2483 0034 00000000 		.word	.LANCHOR36
 2484 0038 0000C041 		.word	1103101952
 2485 003c 00008441 		.word	1099169792
 2486              		.cfi_endproc
 2487              	.LFE165:
 2489              		.section	.text._Z22measureCriticalSensorsv,"ax",%progbits
 2490              		.align	1
 2491              		.global	_Z22measureCriticalSensorsv
 2492              		.thumb
 2493              		.thumb_func
 2495              	_Z22measureCriticalSensorsv:
 2496              	.LFB166:
 139:../AeroQuad32/platform_aeroquad32.h ****   #endif
 140:../AeroQuad32/platform_aeroquad32.h **** 
 141:../AeroQuad32/platform_aeroquad32.h **** }
 142:../AeroQuad32/platform_aeroquad32.h **** 
 143:../AeroQuad32/platform_aeroquad32.h **** unsigned long previousMeasureCriticalSensorsTime = 0;
 144:../AeroQuad32/platform_aeroquad32.h **** void measureCriticalSensors() {
 2497              		.loc 12 144 0
 2498              		.cfi_startproc
 2499              		@ args = 0, pretend = 0, frame = 0
 2500              		@ frame_needed = 0, uses_anonymous_args = 0
 2501 0000 38B5     		push	{r3, r4, r5, lr}
 2502              	.LCFI22:
 2503              		.cfi_def_cfa_offset 16
 2504              		.cfi_offset 3, -16
 2505              		.cfi_offset 4, -12
 2506              		.cfi_offset 5, -8
 2507              		.cfi_offset 14, -4
 145:../AeroQuad32/platform_aeroquad32.h ****   // read sensors not faster than every 1 ms
 146:../AeroQuad32/platform_aeroquad32.h ****   if (currentTime - previousMeasureCriticalSensorsTime >= 1000) {
 2508              		.loc 12 146 0
 2509 0002 074D     		ldr	r5, .L166
 2510 0004 074C     		ldr	r4, .L166+4
 2511 0006 2A68     		ldr	r2, [r5, #0]
 2512 0008 2368     		ldr	r3, [r4, #0]
 2513 000a D01A     		subs	r0, r2, r3
 2514 000c B0F57A7F 		cmp	r0, #1000
 2515 0010 05D3     		bcc	.L164
 147:../AeroQuad32/platform_aeroquad32.h ****     measureGyroSum();
 2516              		.loc 12 147 0
 2517 0012 FFF7FEFF 		bl	_Z14measureGyroSumv
 2518              	.LVL163:
 148:../AeroQuad32/platform_aeroquad32.h ****     measureAccelSum();
 2519              		.loc 12 148 0
 2520 0016 FFF7FEFF 		bl	_Z15measureAccelSumv
 2521              	.LVL164:
 149:../AeroQuad32/platform_aeroquad32.h ****     previousMeasureCriticalSensorsTime = currentTime;
 2522              		.loc 12 149 0
 2523 001a 2968     		ldr	r1, [r5, #0]
 2524 001c 2160     		str	r1, [r4, #0]
 2525              	.L164:
 2526 001e 38BD     		pop	{r3, r4, r5, pc}
 2527              	.L167:
 2528              		.align	2
 2529              	.L166:
 2530 0020 00000000 		.word	.LANCHOR7
 2531 0024 00000000 		.word	.LANCHOR37
 2532              		.cfi_endproc
 2533              	.LFE166:
 2535              		.section	.text._Z29initializeBaseKinematicsParamv,"ax",%progbits
 2536              		.align	1
 2537              		.global	_Z29initializeBaseKinematicsParamv
 2538              		.thumb
 2539              		.thumb_func
 2541              	_Z29initializeBaseKinematicsParamv:
 2542              	.LFB167:
 2543              		.file 13 "../Libraries/AQ_Kinematics/Kinematics.h"
   1:../Libraries/AQ_Kinematics/Kinematics.h **** /*
   2:../Libraries/AQ_Kinematics/Kinematics.h ****   AeroQuad v3.0.1 - February 2012
   3:../Libraries/AQ_Kinematics/Kinematics.h ****   www.AeroQuad.com
   4:../Libraries/AQ_Kinematics/Kinematics.h ****   Copyright (c) 2012 Ted Carancho.  All rights reserved.
   5:../Libraries/AQ_Kinematics/Kinematics.h ****   An Open Source Arduino based multicopter.
   6:../Libraries/AQ_Kinematics/Kinematics.h ****  
   7:../Libraries/AQ_Kinematics/Kinematics.h ****   This program is free software: you can redistribute it and/or modify 
   8:../Libraries/AQ_Kinematics/Kinematics.h ****   it under the terms of the GNU General Public License as published by 
   9:../Libraries/AQ_Kinematics/Kinematics.h ****   the Free Software Foundation, either version 3 of the License, or 
  10:../Libraries/AQ_Kinematics/Kinematics.h ****   (at your option) any later version. 
  11:../Libraries/AQ_Kinematics/Kinematics.h **** 
  12:../Libraries/AQ_Kinematics/Kinematics.h ****   This program is distributed in the hope that it will be useful, 
  13:../Libraries/AQ_Kinematics/Kinematics.h ****   but WITHOUT ANY WARRANTY; without even the implied warranty of 
  14:../Libraries/AQ_Kinematics/Kinematics.h ****   MERCHANTABILITY or FITNESS FOR A PARTICULAR PURPOSE. See the 
  15:../Libraries/AQ_Kinematics/Kinematics.h ****   GNU General Public License for more details. 
  16:../Libraries/AQ_Kinematics/Kinematics.h **** 
  17:../Libraries/AQ_Kinematics/Kinematics.h ****   You should have received a copy of the GNU General Public License 
  18:../Libraries/AQ_Kinematics/Kinematics.h ****   along with this program. If not, see <http://www.gnu.org/licenses/>. 
  19:../Libraries/AQ_Kinematics/Kinematics.h **** */
  20:../Libraries/AQ_Kinematics/Kinematics.h **** 
  21:../Libraries/AQ_Kinematics/Kinematics.h **** #ifndef _AQ_KINEMATICS_
  22:../Libraries/AQ_Kinematics/Kinematics.h **** #define _AQ_KINEMATICS_
  23:../Libraries/AQ_Kinematics/Kinematics.h **** 
  24:../Libraries/AQ_Kinematics/Kinematics.h **** #include "GlobalDefined.h"
  25:../Libraries/AQ_Kinematics/Kinematics.h **** 
  26:../Libraries/AQ_Kinematics/Kinematics.h **** #define CF 0
  27:../Libraries/AQ_Kinematics/Kinematics.h **** #define KF 1
  28:../Libraries/AQ_Kinematics/Kinematics.h **** #define DCM 2
  29:../Libraries/AQ_Kinematics/Kinematics.h **** #define ARG 3
  30:../Libraries/AQ_Kinematics/Kinematics.h **** #define MARG 4
  31:../Libraries/AQ_Kinematics/Kinematics.h **** 
  32:../Libraries/AQ_Kinematics/Kinematics.h **** // This class is responsible for calculating vehicle attitude
  33:../Libraries/AQ_Kinematics/Kinematics.h **** byte kinematicsType = 0;
  34:../Libraries/AQ_Kinematics/Kinematics.h **** float kinematicsAngle[3] = {0.0,0.0,0.0};
  35:../Libraries/AQ_Kinematics/Kinematics.h **** float gyroAngle[2] = {0.0,0.0};
  36:../Libraries/AQ_Kinematics/Kinematics.h **** float correctedRateVector[3] = {0.0,0.0,0.0};
  37:../Libraries/AQ_Kinematics/Kinematics.h **** float earthAccel[3] = {0.0,0.0,0.0};
  38:../Libraries/AQ_Kinematics/Kinematics.h **** 
  39:../Libraries/AQ_Kinematics/Kinematics.h **** float accelCutoff = 0.0;
  40:../Libraries/AQ_Kinematics/Kinematics.h **** 
  41:../Libraries/AQ_Kinematics/Kinematics.h **** void initializeBaseKinematicsParam() {
 2544              		.loc 13 41 0
 2545              		.cfi_startproc
 2546              		@ args = 0, pretend = 0, frame = 0
 2547              		@ frame_needed = 0, uses_anonymous_args = 0
 2548              		@ link register save eliminated.
 2549              	.LVL165:
 2550              	.LBB187:
 2551              	.LBB188:
  42:../Libraries/AQ_Kinematics/Kinematics.h **** 
  43:../Libraries/AQ_Kinematics/Kinematics.h ****   for (byte axis = XAXIS; axis <= ZAXIS; axis++) {
  44:../Libraries/AQ_Kinematics/Kinematics.h ****     kinematicsAngle[axis] = 0.0;
 2552              		.loc 13 44 0
 2553 0000 044A     		ldr	r2, .L169
 2554              	.LBE188:
  45:../Libraries/AQ_Kinematics/Kinematics.h ****   }
  46:../Libraries/AQ_Kinematics/Kinematics.h ****   gyroAngle[XAXIS] = 0;
 2555              		.loc 13 46 0
 2556 0002 0548     		ldr	r0, .L169+4
 2557              	.LBB189:
  44:../Libraries/AQ_Kinematics/Kinematics.h ****     kinematicsAngle[axis] = 0.0;
 2558              		.loc 13 44 0
 2559 0004 0023     		movs	r3, #0
 2560 0006 1360     		str	r3, [r2, #0]	@ float
 2561              	.LVL166:
 2562 0008 5360     		str	r3, [r2, #4]	@ float
 2563              	.LVL167:
 2564 000a 9360     		str	r3, [r2, #8]	@ float
 2565              	.LVL168:
 2566              	.LBE189:
 2567              		.loc 13 46 0
 2568 000c 0360     		str	r3, [r0, #0]	@ float
  47:../Libraries/AQ_Kinematics/Kinematics.h ****   gyroAngle[YAXIS] = 0;
 2569              		.loc 13 47 0
 2570 000e 4360     		str	r3, [r0, #4]	@ float
 2571 0010 7047     		bx	lr
 2572              	.L170:
 2573 0012 00BF     		.align	2
 2574              	.L169:
 2575 0014 00000000 		.word	.LANCHOR38
 2576 0018 00000000 		.word	.LANCHOR39
 2577              	.LBE187:
 2578              		.cfi_endproc
 2579              	.LFE167:
 2581              		.section	.text._Z27kinematicsGetDegreesHeadingh,"ax",%progbits
 2582              		.align	1
 2583              		.global	_Z27kinematicsGetDegreesHeadingh
 2584              		.thumb
 2585              		.thumb_func
 2587              	_Z27kinematicsGetDegreesHeadingh:
 2588              	.LFB168:
  48:../Libraries/AQ_Kinematics/Kinematics.h **** }
  49:../Libraries/AQ_Kinematics/Kinematics.h **** 
  50:../Libraries/AQ_Kinematics/Kinematics.h **** void initializeKinematics(float hdgX, float hdgY);
  51:../Libraries/AQ_Kinematics/Kinematics.h **** void calculateKinematics(float rollRate,           float pitchRate,     float yawRate,       
  52:../Libraries/AQ_Kinematics/Kinematics.h ****                          float longitudinalAccel,  float lateralAccel,  float verticalAccel, 
  53:../Libraries/AQ_Kinematics/Kinematics.h ****                          float G_Dt);
  54:../Libraries/AQ_Kinematics/Kinematics.h **** float getGyroUnbias(byte axis);
  55:../Libraries/AQ_Kinematics/Kinematics.h **** void calibrateKinematics();
  56:../Libraries/AQ_Kinematics/Kinematics.h ****  
  57:../Libraries/AQ_Kinematics/Kinematics.h ****   // returns the kinematicsAngle of a specific axis in SI units (radians)
  58:../Libraries/AQ_Kinematics/Kinematics.h **** //  const float getData(byte axis) {
  59:../Libraries/AQ_Kinematics/Kinematics.h **** //    return kinematicsAngle[axis];
  60:../Libraries/AQ_Kinematics/Kinematics.h **** //  }
  61:../Libraries/AQ_Kinematics/Kinematics.h ****   // return heading as +PI/-PI
  62:../Libraries/AQ_Kinematics/Kinematics.h **** //  const float getHeading(byte axis) {
  63:../Libraries/AQ_Kinematics/Kinematics.h **** //    return(kinematicsAngle[axis]);
  64:../Libraries/AQ_Kinematics/Kinematics.h **** //  }
  65:../Libraries/AQ_Kinematics/Kinematics.h ****   
  66:../Libraries/AQ_Kinematics/Kinematics.h ****   // This really needs to be in Radians to be consistent
  67:../Libraries/AQ_Kinematics/Kinematics.h ****   // I'll fix later - AKA
  68:../Libraries/AQ_Kinematics/Kinematics.h ****   // returns heading in degrees as 0-360
  69:../Libraries/AQ_Kinematics/Kinematics.h **** const float kinematicsGetDegreesHeading(byte axis) {
 2589              		.loc 13 69 0
 2590              		.cfi_startproc
 2591              		@ args = 0, pretend = 0, frame = 0
 2592              		@ frame_needed = 0, uses_anonymous_args = 0
 2593              		@ link register save eliminated.
 2594              	.LVL169:
 2595              	.LBB190:
  70:../Libraries/AQ_Kinematics/Kinematics.h ****   float tDegrees;
  71:../Libraries/AQ_Kinematics/Kinematics.h ****     
  72:../Libraries/AQ_Kinematics/Kinematics.h ****   tDegrees = degrees(kinematicsAngle[axis]);
 2596              		.loc 13 72 0
 2597 0000 0A4B     		ldr	r3, .L175
 2598 0002 03EB8000 		add	r0, r3, r0, lsl #2
 2599              	.LVL170:
 2600 0006 90ED007A 		flds	s14, [r0, #0]
 2601 000a DFED097A 		flds	s15, .L175+4
 2602 000e 27EE270A 		fmuls	s0, s14, s15
 2603              	.LVL171:
  73:../Libraries/AQ_Kinematics/Kinematics.h ****   if (tDegrees < 0.0)
 2604              		.loc 13 73 0
 2605 0012 B5EEC00A 		fcmpezs	s0
 2606 0016 F1EE10FA 		fmstat
  74:../Libraries/AQ_Kinematics/Kinematics.h ****     return (tDegrees + 360.0);
 2607              		.loc 13 74 0
 2608 001a 44BF     		itt	mi
 2609 001c 9FED057A 		fldsmi	s14, .L175+8
 2610 0020 30EE070A 		faddsmi	s0, s0, s14
 2611              	.LVL172:
 2612              	.LBE190:
  75:../Libraries/AQ_Kinematics/Kinematics.h ****   else
  76:../Libraries/AQ_Kinematics/Kinematics.h ****     return (tDegrees);
  77:../Libraries/AQ_Kinematics/Kinematics.h **** }
 2613              		.loc 13 77 0
 2614 0024 10EE100A 		fmrs	r0, s0
 2615              	.LVL173:
 2616 0028 7047     		bx	lr
 2617              	.L176:
 2618 002a 00BF     		.align	2
 2619              	.L175:
 2620 002c 00000000 		.word	.LANCHOR38
 2621 0030 E12E6542 		.word	1113927393
 2622 0034 0000B443 		.word	1135869952
 2623              		.cfi_endproc
 2624              	.LFE168:
 2626              		.section	.text._Z9argUpdatefffffff,"ax",%progbits
 2627              		.align	1
 2628              		.global	_Z9argUpdatefffffff
 2629              		.thumb
 2630              		.thumb_func
 2632              	_Z9argUpdatefffffff:
 2633              	.LFB169:
 2634              		.file 14 "../Libraries/AQ_Kinematics/Kinematics_ARG.h"
   1:../Libraries/AQ_Kinematics/Kinematics_ARG.h **** /*
   2:../Libraries/AQ_Kinematics/Kinematics_ARG.h ****   AeroQuad v3.0.1 - February 2012
   3:../Libraries/AQ_Kinematics/Kinematics_ARG.h ****   www.AeroQuad.com
   4:../Libraries/AQ_Kinematics/Kinematics_ARG.h ****   Copyright (c) 2012 Ted Carancho.  All rights reserved.
   5:../Libraries/AQ_Kinematics/Kinematics_ARG.h ****   An Open Source Arduino based multicopter.
   6:../Libraries/AQ_Kinematics/Kinematics_ARG.h ****  
   7:../Libraries/AQ_Kinematics/Kinematics_ARG.h ****   This program is free software: you can redistribute it and/or modify 
   8:../Libraries/AQ_Kinematics/Kinematics_ARG.h ****   it under the terms of the GNU General Public License as published by 
   9:../Libraries/AQ_Kinematics/Kinematics_ARG.h ****   the Free Software Foundation, either version 3 of the License, or 
  10:../Libraries/AQ_Kinematics/Kinematics_ARG.h ****   (at your option) any later version. 
  11:../Libraries/AQ_Kinematics/Kinematics_ARG.h **** 
  12:../Libraries/AQ_Kinematics/Kinematics_ARG.h ****   This program is distributed in the hope that it will be useful, 
  13:../Libraries/AQ_Kinematics/Kinematics_ARG.h ****   but WITHOUT ANY WARRANTY; without even the implied warranty of 
  14:../Libraries/AQ_Kinematics/Kinematics_ARG.h ****   MERCHANTABILITY or FITNESS FOR A PARTICULAR PURPOSE. See the 
  15:../Libraries/AQ_Kinematics/Kinematics_ARG.h ****   GNU General Public License for more details. 
  16:../Libraries/AQ_Kinematics/Kinematics_ARG.h **** 
  17:../Libraries/AQ_Kinematics/Kinematics_ARG.h ****   You should have received a copy of the GNU General Public License 
  18:../Libraries/AQ_Kinematics/Kinematics_ARG.h ****   along with this program. If not, see <http://www.gnu.org/licenses/>. 
  19:../Libraries/AQ_Kinematics/Kinematics_ARG.h **** */
  20:../Libraries/AQ_Kinematics/Kinematics_ARG.h **** 
  21:../Libraries/AQ_Kinematics/Kinematics_ARG.h **** #ifndef _AQ_KINEMATICS_ARG_
  22:../Libraries/AQ_Kinematics/Kinematics_ARG.h **** #define _AQ_KINEMATICS_ARG_
  23:../Libraries/AQ_Kinematics/Kinematics_ARG.h **** 
  24:../Libraries/AQ_Kinematics/Kinematics_ARG.h **** //=================================================================================================
  25:../Libraries/AQ_Kinematics/Kinematics_ARG.h **** // IMU.c
  26:../Libraries/AQ_Kinematics/Kinematics_ARG.h **** // S.O.H. Madgwick
  27:../Libraries/AQ_Kinematics/Kinematics_ARG.h **** // 25th September 2010
  28:../Libraries/AQ_Kinematics/Kinematics_ARG.h **** //=================================================================================================
  29:../Libraries/AQ_Kinematics/Kinematics_ARG.h **** // Description:
  30:../Libraries/AQ_Kinematics/Kinematics_ARG.h **** //
  31:../Libraries/AQ_Kinematics/Kinematics_ARG.h **** // Quaternion implementation of the 'DCM filter' [Mayhony et al].
  32:../Libraries/AQ_Kinematics/Kinematics_ARG.h **** //
  33:../Libraries/AQ_Kinematics/Kinematics_ARG.h **** // User must define 'halfT' as the (sample period / 2), and the filter gains 'Kp' and 'Ki'.
  34:../Libraries/AQ_Kinematics/Kinematics_ARG.h **** //
  35:../Libraries/AQ_Kinematics/Kinematics_ARG.h **** // Global variables 'q0', 'q1', 'q2', 'q3' are the quaternion elements representing the estimated
  36:../Libraries/AQ_Kinematics/Kinematics_ARG.h **** // orientation.  See my report for an overview of the use of quaternions in this application.
  37:../Libraries/AQ_Kinematics/Kinematics_ARG.h **** //
  38:../Libraries/AQ_Kinematics/Kinematics_ARG.h **** // User must call 'IMUupdate()' every sample period and parse calibrated gyroscope ('gx', 'gy', 'gz
  39:../Libraries/AQ_Kinematics/Kinematics_ARG.h **** // and accelerometer ('ax', 'ay', 'ay') data.  Gyroscope units are radians/second, accelerometer 
  40:../Libraries/AQ_Kinematics/Kinematics_ARG.h **** // units are irrelevant as the vector is normalised.
  41:../Libraries/AQ_Kinematics/Kinematics_ARG.h **** //
  42:../Libraries/AQ_Kinematics/Kinematics_ARG.h **** //=================================================================================================
  43:../Libraries/AQ_Kinematics/Kinematics_ARG.h **** 
  44:../Libraries/AQ_Kinematics/Kinematics_ARG.h **** 
  45:../Libraries/AQ_Kinematics/Kinematics_ARG.h **** ////////////////////////////////////////////////////////////////////////////////
  46:../Libraries/AQ_Kinematics/Kinematics_ARG.h **** // ARG - Accelerometer, Rate Gyro
  47:../Libraries/AQ_Kinematics/Kinematics_ARG.h **** ////////////////////////////////////////////////////////////////////////////////
  48:../Libraries/AQ_Kinematics/Kinematics_ARG.h **** 
  49:../Libraries/AQ_Kinematics/Kinematics_ARG.h **** 
  50:../Libraries/AQ_Kinematics/Kinematics_ARG.h **** #include "Kinematics.h"
  51:../Libraries/AQ_Kinematics/Kinematics_ARG.h **** 
  52:../Libraries/AQ_Kinematics/Kinematics_ARG.h **** #include <AQMath.h>
  53:../Libraries/AQ_Kinematics/Kinematics_ARG.h **** 
  54:../Libraries/AQ_Kinematics/Kinematics_ARG.h **** float Kp = 0.0;                   					// proportional gain governs rate of convergence to accelero
  55:../Libraries/AQ_Kinematics/Kinematics_ARG.h **** float Ki = 0.0;                   					// integral gain governs rate of convergence of gyroscope bi
  56:../Libraries/AQ_Kinematics/Kinematics_ARG.h **** float halfT = 0.0;                					// half the sample period
  57:../Libraries/AQ_Kinematics/Kinematics_ARG.h **** float q0 = 0.0, q1 = 0.0, q2 = 0.0, q3 = 0.0;       // quaternion elements representing the estimat
  58:../Libraries/AQ_Kinematics/Kinematics_ARG.h **** float exInt = 0.0, eyInt = 0.0, ezInt = 0.0;  		// scaled integral error
  59:../Libraries/AQ_Kinematics/Kinematics_ARG.h ****   
  60:../Libraries/AQ_Kinematics/Kinematics_ARG.h **** float previousEx = 0.0;
  61:../Libraries/AQ_Kinematics/Kinematics_ARG.h **** float previousEy = 0.0;
  62:../Libraries/AQ_Kinematics/Kinematics_ARG.h **** float previousEz = 0.0;
  63:../Libraries/AQ_Kinematics/Kinematics_ARG.h **** 
  64:../Libraries/AQ_Kinematics/Kinematics_ARG.h **** ////////////////////////////////////////////////////////////////////////////////
  65:../Libraries/AQ_Kinematics/Kinematics_ARG.h **** // argUpdate
  66:../Libraries/AQ_Kinematics/Kinematics_ARG.h **** ////////////////////////////////////////////////////////////////////////////////
  67:../Libraries/AQ_Kinematics/Kinematics_ARG.h **** void argUpdate(float gx, float gy, float gz, float ax, float ay, float az, float G_Dt) {
 2635              		.loc 14 67 0
 2636              		.cfi_startproc
 2637              		@ args = 12, pretend = 0, frame = 0
 2638              		@ frame_needed = 0, uses_anonymous_args = 0
 2639              	.LVL174:
 2640 0000 F8B5     		push	{r3, r4, r5, r6, r7, lr}
 2641              	.LCFI23:
 2642              		.cfi_def_cfa_offset 24
 2643              		.cfi_offset 3, -24
 2644              		.cfi_offset 4, -20
 2645              		.cfi_offset 5, -16
 2646              		.cfi_offset 6, -12
 2647              		.cfi_offset 7, -8
 2648              		.cfi_offset 14, -4
 2649 0002 2DED068B 		fstmfdd	sp!, {d8, d9, d10}
 2650              	.LCFI24:
 2651              		.cfi_def_cfa_offset 48
 2652              		.cfi_offset 80, -48
 2653              		.cfi_offset 82, -40
 2654              		.cfi_offset 84, -32
 2655              		.loc 14 67 0
 2656 0006 9DED0C9A 		flds	s18, [sp, #48]
 2657 000a 08EE103A 		fmsr	s16, r3
 2658              	.LBB191:
  68:../Libraries/AQ_Kinematics/Kinematics_ARG.h ****   
  69:../Libraries/AQ_Kinematics/Kinematics_ARG.h ****   float norm;
  70:../Libraries/AQ_Kinematics/Kinematics_ARG.h ****   float vx, vy, vz;
  71:../Libraries/AQ_Kinematics/Kinematics_ARG.h ****   float q0i, q1i, q2i, q3i;
  72:../Libraries/AQ_Kinematics/Kinematics_ARG.h ****   float ex, ey, ez;
  73:../Libraries/AQ_Kinematics/Kinematics_ARG.h ****     
  74:../Libraries/AQ_Kinematics/Kinematics_ARG.h ****   halfT = G_Dt/2;
  75:../Libraries/AQ_Kinematics/Kinematics_ARG.h ****   
  76:../Libraries/AQ_Kinematics/Kinematics_ARG.h ****   // normalise the measurements
  77:../Libraries/AQ_Kinematics/Kinematics_ARG.h ****   norm = sqrt(ax*ax + ay*ay + az*az);       
 2659              		.loc 14 77 0
 2660 000e 69EE090A 		fmuls	s1, s18, s18
 2661 0012 48EE080A 		fmacs	s1, s16, s16
 2662              	.LBE191:
  67:../Libraries/AQ_Kinematics/Kinematics_ARG.h **** void argUpdate(float gx, float gy, float gz, float ax, float ay, float az, float G_Dt) {
 2663              		.loc 14 67 0
 2664 0016 DDED0D8A 		flds	s17, [sp, #52]
 2665              	.LBB192:
  74:../Libraries/AQ_Kinematics/Kinematics_ARG.h ****   halfT = G_Dt/2;
 2666              		.loc 14 74 0
 2667 001a 9DED0E7A 		flds	s14, [sp, #56]
 2668              		.loc 14 77 0
 2669 001e 48EEA80A 		fmacs	s1, s17, s17
  74:../Libraries/AQ_Kinematics/Kinematics_ARG.h ****   halfT = G_Dt/2;
 2670              		.loc 14 74 0
 2671 0022 F6EE007A 		fconsts	s15, #96
 2672 0026 27EE270A 		fmuls	s0, s14, s15
 2673 002a 824B     		ldr	r3, .L190
 2674              	.LVL175:
  78:../Libraries/AQ_Kinematics/Kinematics_ARG.h ****   ax = ax / norm;
  79:../Libraries/AQ_Kinematics/Kinematics_ARG.h ****   ay = ay / norm;
  80:../Libraries/AQ_Kinematics/Kinematics_ARG.h ****   az = az / norm;
  81:../Libraries/AQ_Kinematics/Kinematics_ARG.h ****      	
  82:../Libraries/AQ_Kinematics/Kinematics_ARG.h ****   // estimated direction of gravity and flux (v and w)
  83:../Libraries/AQ_Kinematics/Kinematics_ARG.h ****   vx = 2*(q1*q3 - q0*q2);
 2675              		.loc 14 83 0
 2676 002c 824C     		ldr	r4, .L190+4
  84:../Libraries/AQ_Kinematics/Kinematics_ARG.h ****   vy = 2*(q0*q1 + q2*q3);
  85:../Libraries/AQ_Kinematics/Kinematics_ARG.h ****   vz = q0*q0 - q1*q1 - q2*q2 + q3*q3;
  86:../Libraries/AQ_Kinematics/Kinematics_ARG.h ****     
  87:../Libraries/AQ_Kinematics/Kinematics_ARG.h ****   // error is sum of cross product between reference direction of fields and direction measured by 
  88:../Libraries/AQ_Kinematics/Kinematics_ARG.h ****   ex = (vy*az - vz*ay);
  89:../Libraries/AQ_Kinematics/Kinematics_ARG.h ****   ey = (vz*ax - vx*az);
  90:../Libraries/AQ_Kinematics/Kinematics_ARG.h ****   ez = (vx*ay - vy*ax);
  91:../Libraries/AQ_Kinematics/Kinematics_ARG.h ****     
  92:../Libraries/AQ_Kinematics/Kinematics_ARG.h ****   // integral error scaled integral gain
  93:../Libraries/AQ_Kinematics/Kinematics_ARG.h ****   exInt = exInt + ex*Ki;
 2677              		.loc 14 93 0
 2678 002e 834F     		ldr	r7, .L190+8
 2679 0030 834E     		ldr	r6, .L190+12
  94:../Libraries/AQ_Kinematics/Kinematics_ARG.h ****   if (isSwitched(previousEx,ex)) {
 2680              		.loc 14 94 0
 2681 0032 844D     		ldr	r5, .L190+16
  74:../Libraries/AQ_Kinematics/Kinematics_ARG.h ****   halfT = G_Dt/2;
 2682              		.loc 14 74 0
 2683 0034 83ED000A 		fsts	s0, [r3, #0]
 2684              	.LBE192:
  67:../Libraries/AQ_Kinematics/Kinematics_ARG.h **** void argUpdate(float gx, float gy, float gz, float ax, float ay, float az, float G_Dt) {
 2685              		.loc 14 67 0
 2686 0038 0AEE900A 		fmsr	s21, r0
 2687              	.LBB193:
  77:../Libraries/AQ_Kinematics/Kinematics_ARG.h ****   norm = sqrt(ax*ax + ay*ay + az*az);       
 2688              		.loc 14 77 0
 2689 003c 10EE900A 		fmrs	r0, s1
 2690              	.LVL176:
 2691              	.LBE193:
  67:../Libraries/AQ_Kinematics/Kinematics_ARG.h **** void argUpdate(float gx, float gy, float gz, float ax, float ay, float az, float G_Dt) {
 2692              		.loc 14 67 0
 2693 0040 09EE902A 		fmsr	s19, r2
 2694 0044 0AEE101A 		fmsr	s20, r1
 2695              	.LBB194:
  77:../Libraries/AQ_Kinematics/Kinematics_ARG.h ****   norm = sqrt(ax*ax + ay*ay + az*az);       
 2696              		.loc 14 77 0
 2697 0048 FFF7FEFF 		bl	__aeabi_f2d
 2698              	.LVL177:
 2699 004c FFF7FEFF 		bl	sqrt
 2700              	.LVL178:
 2701 0050 FFF7FEFF 		bl	__aeabi_d2f
 2702              	.LVL179:
 2703 0054 01EE100A 		fmsr	s2, r0
 2704              	.LVL180:
  83:../Libraries/AQ_Kinematics/Kinematics_ARG.h ****   vx = 2*(q1*q3 - q0*q2);
 2705              		.loc 14 83 0
 2706 0058 7B48     		ldr	r0, .L190+20
 2707              	.LVL181:
 2708 005a 7C4A     		ldr	r2, .L190+24
 2709 005c 7C49     		ldr	r1, .L190+28
  79:../Libraries/AQ_Kinematics/Kinematics_ARG.h ****   ay = ay / norm;
 2710              		.loc 14 79 0
 2711 005e 89EE012A 		fdivs	s4, s18, s2
  80:../Libraries/AQ_Kinematics/Kinematics_ARG.h ****   az = az / norm;
 2712              		.loc 14 80 0
 2713 0062 C8EE812A 		fdivs	s5, s17, s2
  83:../Libraries/AQ_Kinematics/Kinematics_ARG.h ****   vx = 2*(q1*q3 - q0*q2);
 2714              		.loc 14 83 0
 2715 0066 90ED003A 		flds	s6, [r0, #0]
 2716 006a D2ED005A 		flds	s11, [r2, #0]
  78:../Libraries/AQ_Kinematics/Kinematics_ARG.h ****   ax = ax / norm;
 2717              		.loc 14 78 0
 2718 006e C8EE011A 		fdivs	s3, s16, s2
 2719              	.LVL182:
 2720              		.loc 14 94 0
 2721 0072 2868     		ldr	r0, [r5, #0]	@ float
  85:../Libraries/AQ_Kinematics/Kinematics_ARG.h ****   vz = q0*q0 - q1*q1 - q2*q2 + q3*q3;
 2722              		.loc 14 85 0
 2723 0074 23EE038A 		fmuls	s16, s6, s6
 2724 0078 15EEA58A 		fmscs	s16, s11, s11
  83:../Libraries/AQ_Kinematics/Kinematics_ARG.h ****   vx = 2*(q1*q3 - q0*q2);
 2725              		.loc 14 83 0
 2726 007c 94ED006A 		flds	s12, [r4, #0]
 2727 0080 D1ED006A 		flds	s13, [r1, #0]
  85:../Libraries/AQ_Kinematics/Kinematics_ARG.h ****   vz = q0*q0 - q1*q1 - q2*q2 + q3*q3;
 2728              		.loc 14 85 0
 2729 0084 06EE468A 		fnmacs	s16, s12, s12
  84:../Libraries/AQ_Kinematics/Kinematics_ARG.h ****   vy = 2*(q0*q1 + q2*q3);
 2730              		.loc 14 84 0
 2731 0088 66EE263A 		fmuls	s7, s12, s13
 2732 008c 45EE833A 		fmacs	s7, s11, s6
  85:../Libraries/AQ_Kinematics/Kinematics_ARG.h ****   vz = q0*q0 - q1*q1 - q2*q2 + q3*q3;
 2733              		.loc 14 85 0
 2734 0090 06EEA68A 		fmacs	s16, s13, s13
  84:../Libraries/AQ_Kinematics/Kinematics_ARG.h ****   vy = 2*(q0*q1 + q2*q3);
 2735              		.loc 14 84 0
 2736 0094 33EEA34A 		fadds	s8, s7, s7
  88:../Libraries/AQ_Kinematics/Kinematics_ARG.h ****   ex = (vy*az - vz*ay);
 2737              		.loc 14 88 0
 2738 0098 28EE029A 		fmuls	s18, s16, s4
  83:../Libraries/AQ_Kinematics/Kinematics_ARG.h ****   vx = 2*(q1*q3 - q0*q2);
 2739              		.loc 14 83 0
 2740 009c 65EE864A 		fmuls	s9, s11, s12
  88:../Libraries/AQ_Kinematics/Kinematics_ARG.h ****   ex = (vy*az - vz*ay);
 2741              		.loc 14 88 0
 2742 00a0 14EE229A 		fmscs	s18, s8, s5
  83:../Libraries/AQ_Kinematics/Kinematics_ARG.h ****   vx = 2*(q1*q3 - q0*q2);
 2743              		.loc 14 83 0
 2744 00a4 53EE264A 		fmscs	s9, s6, s13
  93:../Libraries/AQ_Kinematics/Kinematics_ARG.h ****   exInt = exInt + ex*Ki;
 2745              		.loc 14 93 0
 2746 00a8 D7ED007A 		flds	s15, [r7, #0]
 2747 00ac 96ED007A 		flds	s14, [r6, #0]
  83:../Libraries/AQ_Kinematics/Kinematics_ARG.h ****   vx = 2*(q1*q3 - q0*q2);
 2748              		.loc 14 83 0
 2749 00b0 34EEA45A 		fadds	s10, s9, s9
 2750              	.LVL183:
  93:../Libraries/AQ_Kinematics/Kinematics_ARG.h ****   exInt = exInt + ex*Ki;
 2751              		.loc 14 93 0
 2752 00b4 49EE077A 		fmacs	s15, s18, s14
  89:../Libraries/AQ_Kinematics/Kinematics_ARG.h ****   ey = (vz*ax - vx*az);
 2753              		.loc 14 89 0
 2754 00b8 65EE228A 		fmuls	s17, s10, s5
 2755 00bc 58EE218A 		fmscs	s17, s16, s3
 2756              	.LVL184:
 2757              		.loc 14 94 0
 2758 00c0 19EE101A 		fmrs	r1, s18
  90:../Libraries/AQ_Kinematics/Kinematics_ARG.h ****   ez = (vx*ay - vy*ax);
 2759              		.loc 14 90 0
 2760 00c4 24EE218A 		fmuls	s16, s8, s3
 2761              	.LVL185:
 2762 00c8 15EE028A 		fmscs	s16, s10, s4
 2763              	.LVL186:
  93:../Libraries/AQ_Kinematics/Kinematics_ARG.h ****   exInt = exInt + ex*Ki;
 2764              		.loc 14 93 0
 2765 00cc C7ED007A 		fsts	s15, [r7, #0]
 2766              		.loc 14 94 0
 2767 00d0 FFF7FEFF 		bl	_Z10isSwitchedff
 2768              	.LVL187:
 2769 00d4 08B1     		cbz	r0, .L178
  95:../Libraries/AQ_Kinematics/Kinematics_ARG.h ****     exInt = 0.0;
 2770              		.loc 14 95 0
 2771 00d6 0023     		movs	r3, #0
 2772 00d8 3B60     		str	r3, [r7, #0]	@ float
 2773              	.L178:
  96:../Libraries/AQ_Kinematics/Kinematics_ARG.h ****   }
  97:../Libraries/AQ_Kinematics/Kinematics_ARG.h ****   previousEx = ex;
  98:../Libraries/AQ_Kinematics/Kinematics_ARG.h **** 	
  99:../Libraries/AQ_Kinematics/Kinematics_ARG.h ****   eyInt = eyInt + ey*Ki;
 2774              		.loc 14 99 0
 2775 00da 5E4C     		ldr	r4, .L190+32
 100:../Libraries/AQ_Kinematics/Kinematics_ARG.h ****   if (isSwitched(previousEy,ey)) {
 2776              		.loc 14 100 0
 2777 00dc 5E4F     		ldr	r7, .L190+36
  99:../Libraries/AQ_Kinematics/Kinematics_ARG.h ****   eyInt = eyInt + ey*Ki;
 2778              		.loc 14 99 0
 2779 00de D4ED000A 		flds	s1, [r4, #0]
 2780 00e2 96ED000A 		flds	s0, [r6, #0]
 2781 00e6 48EE800A 		fmacs	s1, s17, s0
 2782              		.loc 14 100 0
 2783 00ea 3868     		ldr	r0, [r7, #0]	@ float
 2784 00ec 18EE901A 		fmrs	r1, s17
  97:../Libraries/AQ_Kinematics/Kinematics_ARG.h ****   previousEx = ex;
 2785              		.loc 14 97 0
 2786 00f0 85ED009A 		fsts	s18, [r5, #0]
  99:../Libraries/AQ_Kinematics/Kinematics_ARG.h ****   eyInt = eyInt + ey*Ki;
 2787              		.loc 14 99 0
 2788 00f4 C4ED000A 		fsts	s1, [r4, #0]
 2789              		.loc 14 100 0
 2790 00f8 FFF7FEFF 		bl	_Z10isSwitchedff
 2791              	.LVL188:
 2792 00fc 08B1     		cbz	r0, .L179
 101:../Libraries/AQ_Kinematics/Kinematics_ARG.h ****     eyInt = 0.0;
 2793              		.loc 14 101 0
 2794 00fe 0020     		movs	r0, #0
 2795 0100 2060     		str	r0, [r4, #0]	@ float
 2796              	.L179:
 102:../Libraries/AQ_Kinematics/Kinematics_ARG.h ****   }
 103:../Libraries/AQ_Kinematics/Kinematics_ARG.h ****   previousEy = ey;
 104:../Libraries/AQ_Kinematics/Kinematics_ARG.h **** 
 105:../Libraries/AQ_Kinematics/Kinematics_ARG.h ****   ezInt = ezInt + ez*Ki;
 2797              		.loc 14 105 0
 2798 0102 564E     		ldr	r6, .L190+40
 2799 0104 4E49     		ldr	r1, .L190+12
 106:../Libraries/AQ_Kinematics/Kinematics_ARG.h ****   if (isSwitched(previousEz,ez)) {
 2800              		.loc 14 106 0
 2801 0106 564D     		ldr	r5, .L190+44
 105:../Libraries/AQ_Kinematics/Kinematics_ARG.h ****   ezInt = ezInt + ez*Ki;
 2802              		.loc 14 105 0
 2803 0108 91ED001A 		flds	s2, [r1, #0]
 2804 010c D6ED001A 		flds	s3, [r6, #0]
 2805 0110 48EE011A 		fmacs	s3, s16, s2
 2806              		.loc 14 106 0
 2807 0114 2868     		ldr	r0, [r5, #0]	@ float
 2808 0116 18EE101A 		fmrs	r1, s16
 103:../Libraries/AQ_Kinematics/Kinematics_ARG.h ****   previousEy = ey;
 2809              		.loc 14 103 0
 2810 011a C7ED008A 		fsts	s17, [r7, #0]
 105:../Libraries/AQ_Kinematics/Kinematics_ARG.h ****   ezInt = ezInt + ez*Ki;
 2811              		.loc 14 105 0
 2812 011e C6ED001A 		fsts	s3, [r6, #0]
 2813              		.loc 14 106 0
 2814 0122 FFF7FEFF 		bl	_Z10isSwitchedff
 2815              	.LVL189:
 2816 0126 08B1     		cbz	r0, .L180
 107:../Libraries/AQ_Kinematics/Kinematics_ARG.h ****     ezInt = 0.0;
 2817              		.loc 14 107 0
 2818 0128 0022     		movs	r2, #0
 2819 012a 3260     		str	r2, [r6, #0]	@ float
 2820              	.L180:
 108:../Libraries/AQ_Kinematics/Kinematics_ARG.h ****   }
 109:../Libraries/AQ_Kinematics/Kinematics_ARG.h ****   previousEz = ez;
 110:../Libraries/AQ_Kinematics/Kinematics_ARG.h **** 	
 111:../Libraries/AQ_Kinematics/Kinematics_ARG.h ****   // adjusted gyroscope measurements
 112:../Libraries/AQ_Kinematics/Kinematics_ARG.h ****   gx = gx + Kp*ex + exInt;
 2821              		.loc 14 112 0
 2822 012c 4D4B     		ldr	r3, .L190+48
 113:../Libraries/AQ_Kinematics/Kinematics_ARG.h ****   gy = gy + Kp*ey + eyInt;
 114:../Libraries/AQ_Kinematics/Kinematics_ARG.h ****   gz = gz + Kp*ez + ezInt;
 2823              		.loc 14 114 0
 2824 012e 4B48     		ldr	r0, .L190+40
 112:../Libraries/AQ_Kinematics/Kinematics_ARG.h ****   gx = gx + Kp*ex + exInt;
 2825              		.loc 14 112 0
 2826 0130 424C     		ldr	r4, .L190+8
 113:../Libraries/AQ_Kinematics/Kinematics_ARG.h ****   gy = gy + Kp*ey + eyInt;
 2827              		.loc 14 113 0
 2828 0132 484F     		ldr	r7, .L190+32
 115:../Libraries/AQ_Kinematics/Kinematics_ARG.h ****     
 116:../Libraries/AQ_Kinematics/Kinematics_ARG.h ****   // integrate quaternion rate and normalise
 117:../Libraries/AQ_Kinematics/Kinematics_ARG.h ****   q0i = (-q1*gx - q2*gy - q3*gz) * halfT;
 2829              		.loc 14 117 0
 2830 0134 444E     		ldr	r6, .L190+20
 2831 0136 3F49     		ldr	r1, .L190
 112:../Libraries/AQ_Kinematics/Kinematics_ARG.h ****   gx = gx + Kp*ex + exInt;
 2832              		.loc 14 112 0
 2833 0138 93ED002A 		flds	s4, [r3, #0]
 114:../Libraries/AQ_Kinematics/Kinematics_ARG.h ****   gz = gz + Kp*ez + ezInt;
 2834              		.loc 14 114 0
 2835 013c 42EE089A 		fmacs	s19, s4, s16
 2836              	.LVL190:
 112:../Libraries/AQ_Kinematics/Kinematics_ARG.h ****   gx = gx + Kp*ex + exInt;
 2837              		.loc 14 112 0
 2838 0140 42EE09AA 		fmacs	s21, s4, s18
 2839              	.LVL191:
 113:../Libraries/AQ_Kinematics/Kinematics_ARG.h ****   gy = gy + Kp*ey + eyInt;
 2840              		.loc 14 113 0
 2841 0144 02EE28AA 		fmacs	s20, s4, s17
 2842              	.LVL192:
 114:../Libraries/AQ_Kinematics/Kinematics_ARG.h ****   gz = gz + Kp*ez + ezInt;
 2843              		.loc 14 114 0
 2844 0148 D0ED006A 		flds	s13, [r0, #0]
 109:../Libraries/AQ_Kinematics/Kinematics_ARG.h ****   previousEz = ez;
 2845              		.loc 14 109 0
 2846 014c 85ED008A 		fsts	s16, [r5, #0]
 2847              		.loc 14 117 0
 2848 0150 394D     		ldr	r5, .L190+4
 112:../Libraries/AQ_Kinematics/Kinematics_ARG.h ****   gx = gx + Kp*ex + exInt;
 2849              		.loc 14 112 0
 2850 0152 D4ED002A 		flds	s5, [r4, #0]
 113:../Libraries/AQ_Kinematics/Kinematics_ARG.h ****   gy = gy + Kp*ey + eyInt;
 2851              		.loc 14 113 0
 2852 0156 97ED003A 		flds	s6, [r7, #0]
 118:../Libraries/AQ_Kinematics/Kinematics_ARG.h ****   q1i = ( q0*gx + q2*gz - q3*gy) * halfT;
 2853              		.loc 14 118 0
 2854 015a 3C4F     		ldr	r7, .L190+24
 117:../Libraries/AQ_Kinematics/Kinematics_ARG.h ****   q0i = (-q1*gx - q2*gy - q3*gz) * halfT;
 2855              		.loc 14 117 0
 2856 015c 3C4C     		ldr	r4, .L190+28
 2857 015e D5ED004A 		flds	s9, [r5, #0]
 114:../Libraries/AQ_Kinematics/Kinematics_ARG.h ****   gz = gz + Kp*ez + ezInt;
 2858              		.loc 14 114 0
 2859 0162 39EEA64A 		fadds	s8, s19, s13
 2860              		.loc 14 118 0
 2861 0166 D7ED003A 		flds	s7, [r7, #0]
 112:../Libraries/AQ_Kinematics/Kinematics_ARG.h ****   gx = gx + Kp*ex + exInt;
 2862              		.loc 14 112 0
 2863 016a 3AEEA25A 		fadds	s10, s21, s5
 2864              	.LVL193:
 113:../Libraries/AQ_Kinematics/Kinematics_ARG.h ****   gy = gy + Kp*ey + eyInt;
 2865              		.loc 14 113 0
 2866 016e 3AEE037A 		fadds	s14, s20, s6
 2867              	.LVL194:
 117:../Libraries/AQ_Kinematics/Kinematics_ARG.h ****   q0i = (-q1*gx - q2*gy - q3*gz) * halfT;
 2868              		.loc 14 117 0
 2869 0172 96ED000A 		flds	s0, [r6, #0]
 2870              		.loc 14 118 0
 2871 0176 24EE841A 		fmuls	s2, s9, s8
 117:../Libraries/AQ_Kinematics/Kinematics_ARG.h ****   q0i = (-q1*gx - q2*gy - q3*gz) * halfT;
 2872              		.loc 14 117 0
 2873 017a 64EE877A 		fmuls	s15, s9, s14
 2874              		.loc 14 118 0
 2875 017e 03EE851A 		fmacs	s2, s7, s10
 117:../Libraries/AQ_Kinematics/Kinematics_ARG.h ****   q0i = (-q1*gx - q2*gy - q3*gz) * halfT;
 2876              		.loc 14 117 0
 2877 0182 94ED006A 		flds	s12, [r4, #0]
 2878 0186 50EE457A 		fnmscs	s15, s0, s10
 2879              		.loc 14 118 0
 2880 018a 06EE471A 		fnmacs	s2, s12, s14
 119:../Libraries/AQ_Kinematics/Kinematics_ARG.h ****   q2i = ( q0*gy - q1*gz + q3*gx) * halfT;
 2881              		.loc 14 119 0
 2882 018e 20EE043A 		fmuls	s6, s0, s8
 117:../Libraries/AQ_Kinematics/Kinematics_ARG.h ****   q0i = (-q1*gx - q2*gy - q3*gz) * halfT;
 2883              		.loc 14 117 0
 2884 0192 46EE447A 		fnmacs	s15, s12, s8
 2885              		.loc 14 119 0
 2886 0196 13EE873A 		fmscs	s6, s7, s14
 117:../Libraries/AQ_Kinematics/Kinematics_ARG.h ****   q0i = (-q1*gx - q2*gy - q3*gz) * halfT;
 2887              		.loc 14 117 0
 2888 019a D1ED005A 		flds	s11, [r1, #0]
 2889              	.LVL195:
 120:../Libraries/AQ_Kinematics/Kinematics_ARG.h ****   q3i = ( q0*gz + q1*gy - q2*gx) * halfT;
 121:../Libraries/AQ_Kinematics/Kinematics_ARG.h ****   q0 += q0i;
 122:../Libraries/AQ_Kinematics/Kinematics_ARG.h ****   q1 += q1i;
 2890              		.loc 14 122 0
 2891 019e F0EE401A 		fcpys	s3, s0
 120:../Libraries/AQ_Kinematics/Kinematics_ARG.h ****   q3i = ( q0*gz + q1*gy - q2*gx) * halfT;
 2892              		.loc 14 120 0
 2893 01a2 20EE077A 		fmuls	s14, s0, s14
 2894              	.LVL196:
 2895              		.loc 14 122 0
 2896 01a6 41EE251A 		fmacs	s3, s2, s11
 119:../Libraries/AQ_Kinematics/Kinematics_ARG.h ****   q2i = ( q0*gy - q1*gz + q3*gx) * halfT;
 2897              		.loc 14 119 0
 2898 01aa 06EE053A 		fmacs	s6, s12, s10
 120:../Libraries/AQ_Kinematics/Kinematics_ARG.h ****   q3i = ( q0*gz + q1*gy - q2*gx) * halfT;
 2899              		.loc 14 120 0
 2900 01ae 03EE847A 		fmacs	s14, s7, s8
 121:../Libraries/AQ_Kinematics/Kinematics_ARG.h ****   q0 += q0i;
 2901              		.loc 14 121 0
 2902 01b2 F0EE630A 		fcpys	s1, s7
 2903 01b6 47EEA50A 		fmacs	s1, s15, s11
 120:../Libraries/AQ_Kinematics/Kinematics_ARG.h ****   q3i = ( q0*gz + q1*gy - q2*gx) * halfT;
 2904              		.loc 14 120 0
 2905 01ba 04EEC57A 		fnmacs	s14, s9, s10
 123:../Libraries/AQ_Kinematics/Kinematics_ARG.h ****   q2 += q2i;
 2906              		.loc 14 123 0
 2907 01be B0EE642A 		fcpys	s4, s9
 2908 01c2 03EE252A 		fmacs	s4, s6, s11
 124:../Libraries/AQ_Kinematics/Kinematics_ARG.h ****   q3 += q3i;
 125:../Libraries/AQ_Kinematics/Kinematics_ARG.h ****     
 126:../Libraries/AQ_Kinematics/Kinematics_ARG.h ****   // normalise quaternion
 127:../Libraries/AQ_Kinematics/Kinematics_ARG.h ****   norm = sqrt(q0*q0 + q1*q1 + q2*q2 + q3*q3);
 2909              		.loc 14 127 0
 2910 01c6 21EEA15A 		fmuls	s10, s3, s3
 2911              	.LVL197:
 2912 01ca 00EEA05A 		fmacs	s10, s1, s1
 124:../Libraries/AQ_Kinematics/Kinematics_ARG.h ****   q3 += q3i;
 2913              		.loc 14 124 0
 2914 01ce 07EE256A 		fmacs	s12, s14, s11
 2915              	.LVL198:
 2916              		.loc 14 127 0
 2917 01d2 02EE025A 		fmacs	s10, s4, s4
 2918 01d6 06EE065A 		fmacs	s10, s12, s12
 121:../Libraries/AQ_Kinematics/Kinematics_ARG.h ****   q0 += q0i;
 2919              		.loc 14 121 0
 2920 01da C7ED000A 		fsts	s1, [r7, #0]
 124:../Libraries/AQ_Kinematics/Kinematics_ARG.h ****   q3 += q3i;
 2921              		.loc 14 124 0
 2922 01de 84ED006A 		fsts	s12, [r4, #0]
 122:../Libraries/AQ_Kinematics/Kinematics_ARG.h ****   q1 += q1i;
 2923              		.loc 14 122 0
 2924 01e2 C6ED001A 		fsts	s3, [r6, #0]
 123:../Libraries/AQ_Kinematics/Kinematics_ARG.h ****   q2 += q2i;
 2925              		.loc 14 123 0
 2926 01e6 85ED002A 		fsts	s4, [r5, #0]
 2927              		.loc 14 127 0
 2928 01ea 15EE100A 		fmrs	r0, s10
 2929 01ee FFF7FEFF 		bl	__aeabi_f2d
 2930              	.LVL199:
 2931 01f2 FFF7FEFF 		bl	sqrt
 2932              	.LVL200:
 2933 01f6 FFF7FEFF 		bl	__aeabi_d2f
 2934              	.LVL201:
 128:../Libraries/AQ_Kinematics/Kinematics_ARG.h ****   q0 = q0 / norm;
 2935              		.loc 14 128 0
 2936 01fa 97ED000A 		flds	s0, [r7, #0]
 127:../Libraries/AQ_Kinematics/Kinematics_ARG.h ****   norm = sqrt(q0*q0 + q1*q1 + q2*q2 + q3*q3);
 2937              		.loc 14 127 0
 2938 01fe 04EE100A 		fmsr	s8, r0
 2939              	.LVL202:
 129:../Libraries/AQ_Kinematics/Kinematics_ARG.h ****   q1 = q1 / norm;
 2940              		.loc 14 129 0
 2941 0202 96ED006A 		flds	s12, [r6, #0]
 130:../Libraries/AQ_Kinematics/Kinematics_ARG.h ****   q2 = q2 / norm;
 2942              		.loc 14 130 0
 2943 0206 D5ED003A 		flds	s7, [r5, #0]
 131:../Libraries/AQ_Kinematics/Kinematics_ARG.h ****   q3 = q3 / norm;
 2944              		.loc 14 131 0
 2945 020a D4ED000A 		flds	s1, [r4, #0]
 128:../Libraries/AQ_Kinematics/Kinematics_ARG.h ****   q0 = q0 / norm;
 2946              		.loc 14 128 0
 2947 020e C0EE044A 		fdivs	s9, s0, s8
 129:../Libraries/AQ_Kinematics/Kinematics_ARG.h ****   q1 = q1 / norm;
 2948              		.loc 14 129 0
 2949 0212 C6EE045A 		fdivs	s11, s12, s8
 130:../Libraries/AQ_Kinematics/Kinematics_ARG.h ****   q2 = q2 / norm;
 2950              		.loc 14 130 0
 2951 0216 C3EE847A 		fdivs	s15, s7, s8
 2952              		.loc 14 131 0
 2953 021a 80EE841A 		fdivs	s2, s1, s8
 128:../Libraries/AQ_Kinematics/Kinematics_ARG.h ****   q0 = q0 / norm;
 2954              		.loc 14 128 0
 2955 021e C7ED004A 		fsts	s9, [r7, #0]
 129:../Libraries/AQ_Kinematics/Kinematics_ARG.h ****   q1 = q1 / norm;
 2956              		.loc 14 129 0
 2957 0222 C6ED005A 		fsts	s11, [r6, #0]
 130:../Libraries/AQ_Kinematics/Kinematics_ARG.h ****   q2 = q2 / norm;
 2958              		.loc 14 130 0
 2959 0226 C5ED007A 		fsts	s15, [r5, #0]
 2960              		.loc 14 131 0
 2961 022a 84ED001A 		fsts	s2, [r4, #0]
 2962              	.LBE194:
 132:../Libraries/AQ_Kinematics/Kinematics_ARG.h **** }
 2963              		.loc 14 132 0
 2964 022e BDEC068B 		fldmfdd	sp!, {d8, d9, d10}
 2965 0232 F8BD     		pop	{r3, r4, r5, r6, r7, pc}
 2966              	.L191:
 2967              		.align	2
 2968              	.L190:
 2969 0234 00000000 		.word	.LANCHOR40
 2970 0238 00000000 		.word	.LANCHOR44
 2971 023c 00000000 		.word	.LANCHOR45
 2972 0240 00000000 		.word	.LANCHOR46
 2973 0244 00000000 		.word	.LANCHOR47
 2974 0248 00000000 		.word	.LANCHOR41
 2975 024c 00000000 		.word	.LANCHOR43
 2976 0250 00000000 		.word	.LANCHOR42
 2977 0254 00000000 		.word	.LANCHOR48
 2978 0258 00000000 		.word	.LANCHOR49
 2979 025c 00000000 		.word	.LANCHOR50
 2980 0260 00000000 		.word	.LANCHOR51
 2981 0264 00000000 		.word	.LANCHOR52
 2982              		.cfi_endproc
 2983              	.LFE169:
 2985              		.section	.text._Z11eulerAnglesv,"ax",%progbits
 2986              		.align	1
 2987              		.global	_Z11eulerAnglesv
 2988              		.thumb
 2989              		.thumb_func
 2991              	_Z11eulerAnglesv:
 2992              	.LFB170:
 133:../Libraries/AQ_Kinematics/Kinematics_ARG.h ****   
 134:../Libraries/AQ_Kinematics/Kinematics_ARG.h **** void eulerAngles()
 135:../Libraries/AQ_Kinematics/Kinematics_ARG.h **** {
 2993              		.loc 14 135 0
 2994              		.cfi_startproc
 2995              		@ args = 0, pretend = 0, frame = 0
 2996              		@ frame_needed = 0, uses_anonymous_args = 0
 2997 0000 2DE9F047 		push	{r4, r5, r6, r7, r8, r9, sl, lr}
 2998              	.LCFI25:
 2999              		.cfi_def_cfa_offset 32
 3000              		.cfi_offset 4, -32
 3001              		.cfi_offset 5, -28
 3002              		.cfi_offset 6, -24
 3003              		.cfi_offset 7, -20
 3004              		.cfi_offset 8, -16
 3005              		.cfi_offset 9, -12
 3006              		.cfi_offset 10, -8
